
/home/bsc/ameba-rtos-pro2/project/realtek_amebapro2_v0_example/GCC-RELEASE/build/bootloader/bootloader:     file format elf32-littlearm


Disassembly of section .ram.code_text:

00020f60 <RamImgSignature>:
   20f60:	41 6d 65 62 61 50 72 6f 32 ff 00 00                 AmebaPro2...

00020f6c <dcache_clean_invalidate_by_addr.constprop.0>:
   20f6c:	b508      	push	{r3, lr}
   20f6e:	4b03      	ldr	r3, [pc, #12]	@ (20f7c <dcache_clean_invalidate_by_addr.constprop.0+0x10>)
   20f70:	f44f 61c0 	mov.w	r1, #1536	@ 0x600
   20f74:	6a9b      	ldr	r3, [r3, #40]	@ 0x28
   20f76:	4798      	blx	r3
   20f78:	bd08      	pop	{r3, pc}
   20f7a:	bf00      	nop
   20f7c:	10000a60 	.word	0x10000a60

00020f80 <hal_video_set_isp_init_items.isra.0>:
   20f80:	b508      	push	{r3, lr}
   20f82:	4b11      	ldr	r3, [pc, #68]	@ (20fc8 <hal_video_set_isp_init_items.isra.0+0x48>)
   20f84:	eb03 0080 	add.w	r0, r3, r0, lsl #2
   20f88:	680b      	ldr	r3, [r1, #0]
   20f8a:	6840      	ldr	r0, [r0, #4]
   20f8c:	f8c0 3528 	str.w	r3, [r0, #1320]	@ 0x528
   20f90:	684b      	ldr	r3, [r1, #4]
   20f92:	f8c0 352c 	str.w	r3, [r0, #1324]	@ 0x52c
   20f96:	688b      	ldr	r3, [r1, #8]
   20f98:	f8c0 3530 	str.w	r3, [r0, #1328]	@ 0x530
   20f9c:	68cb      	ldr	r3, [r1, #12]
   20f9e:	f8c0 3534 	str.w	r3, [r0, #1332]	@ 0x534
   20fa2:	690b      	ldr	r3, [r1, #16]
   20fa4:	f8c0 3548 	str.w	r3, [r0, #1352]	@ 0x548
   20fa8:	694b      	ldr	r3, [r1, #20]
   20faa:	f8c0 3538 	str.w	r3, [r0, #1336]	@ 0x538
   20fae:	698b      	ldr	r3, [r1, #24]
   20fb0:	f8c0 353c 	str.w	r3, [r0, #1340]	@ 0x53c
   20fb4:	69cb      	ldr	r3, [r1, #28]
   20fb6:	f8c0 3540 	str.w	r3, [r0, #1344]	@ 0x540
   20fba:	6a0b      	ldr	r3, [r1, #32]
   20fbc:	f8c0 3544 	str.w	r3, [r0, #1348]	@ 0x544
   20fc0:	f7ff ffd4 	bl	20f6c <dcache_clean_invalidate_by_addr.constprop.0>
   20fc4:	bd08      	pop	{r3, pc}
   20fc6:	bf00      	nop
   20fc8:	00020e80 	.word	0x00020e80

00020fcc <video_boot_init_sensor_config>:
   20fcc:	f04f 30ff 	mov.w	r0, #4294967295	@ 0xffffffff
   20fd0:	4770      	bx	lr

00020fd2 <user_load_sensor_boot>:
   20fd2:	2000      	movs	r0, #0
   20fd4:	4770      	bx	lr
	...

00020fd8 <video_btldr_init_sensor_process>:
   20fd8:	b510      	push	{r4, lr}
   20fda:	b0c0      	sub	sp, #256	@ 0x100
   20fdc:	f7ff fff9 	bl	20fd2 <user_load_sensor_boot>
   20fe0:	2800      	cmp	r0, #0
   20fe2:	dc09      	bgt.n	20ff8 <video_btldr_init_sensor_process+0x20>
   20fe4:	4b1f      	ldr	r3, [pc, #124]	@ (21064 <video_btldr_init_sensor_process+0x8c>)
   20fe6:	781b      	ldrb	r3, [r3, #0]
   20fe8:	b11b      	cbz	r3, 20ff2 <video_btldr_init_sensor_process+0x1a>
   20fea:	4b1f      	ldr	r3, [pc, #124]	@ (21068 <video_btldr_init_sensor_process+0x90>)
   20fec:	481f      	ldr	r0, [pc, #124]	@ (2106c <video_btldr_init_sensor_process+0x94>)
   20fee:	69db      	ldr	r3, [r3, #28]
   20ff0:	4798      	blx	r3
   20ff2:	f04f 34ff 	mov.w	r4, #4294967295	@ 0xffffffff
   20ff6:	e02a      	b.n	2104e <video_btldr_init_sensor_process+0x76>
   20ff8:	226c      	movs	r2, #108	@ 0x6c
   20ffa:	236a      	movs	r3, #106	@ 0x6a
   20ffc:	2403      	movs	r4, #3
   20ffe:	4668      	mov	r0, sp
   21000:	e9cd 230a 	strd	r2, r3, [sp, #40]	@ 0x28
   21004:	f88d 4008 	strb.w	r4, [sp, #8]
   21008:	f00b f9ab 	bl	2c362 <hal_i2c_pin_unregister_simple>
   2100c:	4668      	mov	r0, sp
   2100e:	f00b f97d 	bl	2c30c <hal_i2c_pin_register_simple>
   21012:	4620      	mov	r0, r4
   21014:	f00b fe82 	bl	2cd1c <hal_voe_i2c_init_btldr>
   21018:	4601      	mov	r1, r0
   2101a:	b150      	cbz	r0, 21032 <video_btldr_init_sensor_process+0x5a>
   2101c:	4b11      	ldr	r3, [pc, #68]	@ (21064 <video_btldr_init_sensor_process+0x8c>)
   2101e:	781b      	ldrb	r3, [r3, #0]
   21020:	b11b      	cbz	r3, 2102a <video_btldr_init_sensor_process+0x52>
   21022:	4b11      	ldr	r3, [pc, #68]	@ (21068 <video_btldr_init_sensor_process+0x90>)
   21024:	4812      	ldr	r0, [pc, #72]	@ (21070 <video_btldr_init_sensor_process+0x98>)
   21026:	69db      	ldr	r3, [r3, #28]
   21028:	4798      	blx	r3
   2102a:	4668      	mov	r0, sp
   2102c:	f00b f999 	bl	2c362 <hal_i2c_pin_unregister_simple>
   21030:	e7df      	b.n	20ff2 <video_btldr_init_sensor_process+0x1a>
   21032:	f7ff ffcb 	bl	20fcc <video_boot_init_sensor_config>
   21036:	4604      	mov	r4, r0
   21038:	b160      	cbz	r0, 21054 <video_btldr_init_sensor_process+0x7c>
   2103a:	4b0a      	ldr	r3, [pc, #40]	@ (21064 <video_btldr_init_sensor_process+0x8c>)
   2103c:	781b      	ldrb	r3, [r3, #0]
   2103e:	b11b      	cbz	r3, 21048 <video_btldr_init_sensor_process+0x70>
   21040:	4b09      	ldr	r3, [pc, #36]	@ (21068 <video_btldr_init_sensor_process+0x90>)
   21042:	480c      	ldr	r0, [pc, #48]	@ (21074 <video_btldr_init_sensor_process+0x9c>)
   21044:	69db      	ldr	r3, [r3, #28]
   21046:	4798      	blx	r3
   21048:	4668      	mov	r0, sp
   2104a:	f00b f98a 	bl	2c362 <hal_i2c_pin_unregister_simple>
   2104e:	4620      	mov	r0, r4
   21050:	b040      	add	sp, #256	@ 0x100
   21052:	bd10      	pop	{r4, pc}
   21054:	2082      	movs	r0, #130	@ 0x82
   21056:	f00c fdfd 	bl	2dc54 <hal_voe_set_kmfw_base_addr>
   2105a:	4620      	mov	r0, r4
   2105c:	f00c fe06 	bl	2dc6c <hal_voe_set_kmfw_len>
   21060:	e7f5      	b.n	2104e <video_btldr_init_sensor_process+0x76>
   21062:	bf00      	nop
   21064:	0001a2a0 	.word	0x0001a2a0
   21068:	100bc800 	.word	0x100bc800
   2106c:	20101200 	.word	0x20101200
   21070:	20101229 	.word	0x20101229
   21074:	2010124b 	.word	0x2010124b

00021078 <video_boot_malloc>:
   21078:	06c3      	lsls	r3, r0, #27
   2107a:	4b03      	ldr	r3, [pc, #12]	@ (21088 <video_boot_malloc+0x10>)
   2107c:	bf1c      	itt	ne
   2107e:	f020 001f 	bicne.w	r0, r0, #31
   21082:	3020      	addne	r0, #32
   21084:	1a18      	subs	r0, r3, r0
   21086:	4770      	bx	lr
   21088:	76dfffe0 	.word	0x76dfffe0

0002108c <video_boot_set_private_mask>:
   2108c:	e92d 4ff0 	stmdb	sp!, {r4, r5, r6, r7, r8, r9, sl, fp, lr}
   21090:	f8df 9154 	ldr.w	r9, [pc, #340]	@ 211e8 <video_boot_set_private_mask+0x15c>
   21094:	2500      	movs	r5, #0
   21096:	b08d      	sub	sp, #52	@ 0x34
   21098:	4a4b      	ldr	r2, [pc, #300]	@ (211c8 <video_boot_set_private_mask+0x13c>)
   2109a:	f8d9 3080 	ldr.w	r3, [r9, #128]	@ 0x80
   2109e:	460c      	mov	r4, r1
   210a0:	f101 0608 	add.w	r6, r1, #8
   210a4:	4f49      	ldr	r7, [pc, #292]	@ (211cc <video_boot_set_private_mask+0x140>)
   210a6:	f8df 8144 	ldr.w	r8, [pc, #324]	@ 211ec <video_boot_set_private_mask+0x160>
   210aa:	9005      	str	r0, [sp, #20]
   210ac:	605d      	str	r5, [r3, #4]
   210ae:	601a      	str	r2, [r3, #0]
   210b0:	e9c3 552e 	strd	r5, r5, [r3, #184]	@ 0xb8
   210b4:	e9c3 5530 	strd	r5, r5, [r3, #192]	@ 0xc0
   210b8:	2d00      	cmp	r5, #0
   210ba:	d16e      	bne.n	2119a <video_boot_set_private_mask+0x10e>
   210bc:	783b      	ldrb	r3, [r7, #0]
   210be:	b11b      	cbz	r3, 210c8 <video_boot_set_private_mask+0x3c>
   210c0:	f8d8 301c 	ldr.w	r3, [r8, #28]
   210c4:	4842      	ldr	r0, [pc, #264]	@ (211d0 <video_boot_set_private_mask+0x144>)
   210c6:	4798      	blx	r3
   210c8:	f8d4 e01c 	ldr.w	lr, [r4, #28]
   210cc:	f01e 0f01 	tst.w	lr, #1
   210d0:	d008      	beq.n	210e4 <video_boot_set_private_mask+0x58>
   210d2:	783b      	ldrb	r3, [r7, #0]
   210d4:	b1e3      	cbz	r3, 21110 <video_boot_set_private_mask+0x84>
   210d6:	f8d8 301c 	ldr.w	r3, [r8, #28]
   210da:	f104 021c 	add.w	r2, r4, #28
   210de:	493d      	ldr	r1, [pc, #244]	@ (211d4 <video_boot_set_private_mask+0x148>)
   210e0:	483d      	ldr	r0, [pc, #244]	@ (211d8 <video_boot_set_private_mask+0x14c>)
   210e2:	e014      	b.n	2110e <video_boot_set_private_mask+0x82>
   210e4:	6b20      	ldr	r0, [r4, #48]	@ 0x30
   210e6:	07c2      	lsls	r2, r0, #31
   210e8:	d508      	bpl.n	210fc <video_boot_set_private_mask+0x70>
   210ea:	783b      	ldrb	r3, [r7, #0]
   210ec:	b183      	cbz	r3, 21110 <video_boot_set_private_mask+0x84>
   210ee:	f8d8 301c 	ldr.w	r3, [r8, #28]
   210f2:	f104 0230 	add.w	r2, r4, #48	@ 0x30
   210f6:	4937      	ldr	r1, [pc, #220]	@ (211d4 <video_boot_set_private_mask+0x148>)
   210f8:	4838      	ldr	r0, [pc, #224]	@ (211dc <video_boot_set_private_mask+0x150>)
   210fa:	e008      	b.n	2110e <video_boot_set_private_mask+0x82>
   210fc:	6ee2      	ldr	r2, [r4, #108]	@ 0x6c
   210fe:	0753      	lsls	r3, r2, #29
   21100:	d017      	beq.n	21132 <video_boot_set_private_mask+0xa6>
   21102:	783b      	ldrb	r3, [r7, #0]
   21104:	b123      	cbz	r3, 21110 <video_boot_set_private_mask+0x84>
   21106:	f8d8 301c 	ldr.w	r3, [r8, #28]
   2110a:	4932      	ldr	r1, [pc, #200]	@ (211d4 <video_boot_set_private_mask+0x148>)
   2110c:	4834      	ldr	r0, [pc, #208]	@ (211e0 <video_boot_set_private_mask+0x154>)
   2110e:	4798      	blx	r3
   21110:	3501      	adds	r5, #1
   21112:	3604      	adds	r6, #4
   21114:	2d05      	cmp	r5, #5
   21116:	d1cf      	bne.n	210b8 <video_boot_set_private_mask+0x2c>
   21118:	9b05      	ldr	r3, [sp, #20]
   2111a:	eb09 0983 	add.w	r9, r9, r3, lsl #2
   2111e:	2301      	movs	r3, #1
   21120:	f8d9 0004 	ldr.w	r0, [r9, #4]
   21124:	f8c0 3524 	str.w	r3, [r0, #1316]	@ 0x524
   21128:	f7ff ff20 	bl	20f6c <dcache_clean_invalidate_by_addr.constprop.0>
   2112c:	b00d      	add	sp, #52	@ 0x34
   2112e:	e8bd 8ff0 	ldmia.w	sp!, {r4, r5, r6, r7, r8, r9, sl, fp, pc}
   21132:	6c63      	ldr	r3, [r4, #68]	@ 0x44
   21134:	0719      	lsls	r1, r3, #28
   21136:	d00d      	beq.n	21154 <video_boot_set_private_mask+0xc8>
   21138:	fbb3 f1f2 	udiv	r1, r3, r2
   2113c:	f011 0f01 	tst.w	r1, #1
   21140:	d008      	beq.n	21154 <video_boot_set_private_mask+0xc8>
   21142:	783b      	ldrb	r3, [r7, #0]
   21144:	2b00      	cmp	r3, #0
   21146:	d0e3      	beq.n	21110 <video_boot_set_private_mask+0x84>
   21148:	460a      	mov	r2, r1
   2114a:	f8d8 301c 	ldr.w	r3, [r8, #28]
   2114e:	4921      	ldr	r1, [pc, #132]	@ (211d4 <video_boot_set_private_mask+0x148>)
   21150:	4824      	ldr	r0, [pc, #144]	@ (211e4 <video_boot_set_private_mask+0x158>)
   21152:	e7dc      	b.n	2110e <video_boot_set_private_mask+0x82>
   21154:	f8d4 c008 	ldr.w	ip, [r4, #8]
   21158:	f1bc 0f00 	cmp.w	ip, #0
   2115c:	d00d      	beq.n	2117a <video_boot_set_private_mask+0xee>
   2115e:	b162      	cbz	r2, 2117a <video_boot_set_private_mask+0xee>
   21160:	6f21      	ldr	r1, [r4, #112]	@ 0x70
   21162:	b151      	cbz	r1, 2117a <video_boot_set_private_mask+0xee>
   21164:	4692      	mov	sl, r2
   21166:	468b      	mov	fp, r1
   21168:	fbb3 f3f2 	udiv	r3, r3, r2
   2116c:	9308      	str	r3, [sp, #32]
   2116e:	6da3      	ldr	r3, [r4, #88]	@ 0x58
   21170:	fbb3 f3f1 	udiv	r3, r3, r1
   21174:	e9cd e006 	strd	lr, r0, [sp, #24]
   21178:	9309      	str	r3, [sp, #36]	@ 0x24
   2117a:	f104 0374 	add.w	r3, r4, #116	@ 0x74
   2117e:	9303      	str	r3, [sp, #12]
   21180:	ab0c      	add	r3, sp, #48	@ 0x30
   21182:	e9cd ab0a 	strd	sl, fp, [sp, #40]	@ 0x28
   21186:	e913 0007 	ldmdb	r3, {r0, r1, r2}
   2118a:	ab06      	add	r3, sp, #24
   2118c:	e88d 0007 	stmia.w	sp, {r0, r1, r2}
   21190:	4660      	mov	r0, ip
   21192:	cb0e      	ldmia	r3, {r1, r2, r3}
   21194:	f00b f838 	bl	2c208 <hal_video_config_grid_mask>
   21198:	e7ba      	b.n	21110 <video_boot_set_private_mask+0x84>
   2119a:	6972      	ldr	r2, [r6, #20]
   2119c:	07d0      	lsls	r0, r2, #31
   2119e:	d498      	bmi.n	210d2 <video_boot_set_private_mask+0x46>
   211a0:	6ab3      	ldr	r3, [r6, #40]	@ 0x28
   211a2:	07d9      	lsls	r1, r3, #31
   211a4:	d4a1      	bmi.n	210ea <video_boot_set_private_mask+0x5e>
   211a6:	6bf1      	ldr	r1, [r6, #60]	@ 0x3c
   211a8:	4411      	add	r1, r2
   211aa:	9108      	str	r1, [sp, #32]
   211ac:	6d31      	ldr	r1, [r6, #80]	@ 0x50
   211ae:	9808      	ldr	r0, [sp, #32]
   211b0:	4419      	add	r1, r3
   211b2:	e88d 0003 	stmia.w	sp, {r0, r1}
   211b6:	9109      	str	r1, [sp, #36]	@ 0x24
   211b8:	1e69      	subs	r1, r5, #1
   211ba:	6830      	ldr	r0, [r6, #0]
   211bc:	e9cd 2306 	strd	r2, r3, [sp, #24]
   211c0:	f00b f870 	bl	2c2a4 <hal_video_config_rect_mask>
   211c4:	e7a4      	b.n	21110 <video_boot_set_private_mask+0x84>
   211c6:	bf00      	nop
   211c8:	00ff0080 	.word	0x00ff0080
   211cc:	0001a2a0 	.word	0x0001a2a0
   211d0:	20101270 	.word	0x20101270
   211d4:	201015e9 	.word	0x201015e9
   211d8:	2010127f 	.word	0x2010127f
   211dc:	201012a4 	.word	0x201012a4
   211e0:	201012c9 	.word	0x201012c9
   211e4:	201012eb 	.word	0x201012eb
   211e8:	00020e80 	.word	0x00020e80
   211ec:	100bc800 	.word	0x100bc800

000211f0 <video_boot_buf_calc>:
   211f0:	b084      	sub	sp, #16
   211f2:	e92d 4ff8 	stmdb	sp!, {r3, r4, r5, r6, r7, r8, r9, sl, fp, lr}
   211f6:	ac0a      	add	r4, sp, #40	@ 0x28
   211f8:	9d85      	ldr	r5, [sp, #532]	@ 0x214
   211fa:	e884 000f 	stmia.w	r4, {r0, r1, r2, r3}
   211fe:	e9dd 207e 	ldrd	r2, r0, [sp, #504]	@ 0x1f8
   21202:	9c87      	ldr	r4, [sp, #540]	@ 0x21c
   21204:	f8dd 16dc 	ldr.w	r1, [sp, #1756]	@ 0x6dc
   21208:	f8dd 36e0 	ldr.w	r3, [sp, #1760]	@ 0x6e0
   2120c:	2a00      	cmp	r2, #0
   2120e:	f000 809b 	beq.w	21348 <video_boot_buf_calc+0x158>
   21212:	2800      	cmp	r0, #0
   21214:	bf04      	itt	eq
   21216:	f44f 6220 	moveq.w	r2, #2560	@ 0xa00
   2121a:	f44f 60b4 	moveq.w	r0, #1440	@ 0x5a0
   2121e:	4342      	muls	r2, r0
   21220:	eb02 0242 	add.w	r2, r2, r2, lsl #1
   21224:	eb02 72d2 	add.w	r2, r2, r2, lsr #31
   21228:	eb04 0462 	add.w	r4, r4, r2, asr #1
   2122c:	9a82      	ldr	r2, [sp, #520]	@ 0x208
   2122e:	b11a      	cbz	r2, 21238 <video_boot_buf_calc+0x48>
   21230:	2d00      	cmp	r5, #0
   21232:	f000 808e 	beq.w	21352 <video_boot_buf_calc+0x162>
   21236:	442c      	add	r4, r5
   21238:	9a83      	ldr	r2, [sp, #524]	@ 0x20c
   2123a:	b10a      	cbz	r2, 21240 <video_boot_buf_calc+0x50>
   2123c:	f504 24fa 	add.w	r4, r4, #512000	@ 0x7d000
   21240:	f8df c124 	ldr.w	ip, [pc, #292]	@ 21368 <video_boot_buf_calc+0x178>
   21244:	f50d 7e08 	add.w	lr, sp, #544	@ 0x220
   21248:	f8dd 8204 	ldr.w	r8, [sp, #516]	@ 0x204
   2124c:	ae0a      	add	r6, sp, #40	@ 0x28
   2124e:	2700      	movs	r7, #0
   21250:	4660      	mov	r0, ip
   21252:	f8df 9104 	ldr.w	r9, [pc, #260]	@ 21358 <video_boot_buf_calc+0x168>
   21256:	f81e 2b01 	ldrb.w	r2, [lr], #1
   2125a:	b34a      	cbz	r2, 212b0 <video_boot_buf_calc+0xc0>
   2125c:	f504 14d0 	add.w	r4, r4, #1703936	@ 0x1a0000
   21260:	e9d6 2503 	ldrd	r2, r5, [r6, #12]
   21264:	f504 5480 	add.w	r4, r4, #4096	@ 0x1000
   21268:	fb05 fa02 	mul.w	sl, r5, r2
   2126c:	6975      	ldr	r5, [r6, #20]
   2126e:	eb0a 024a 	add.w	r2, sl, sl, lsl #1
   21272:	f025 4560 	bic.w	r5, r5, #3758096384	@ 0xe0000000
   21276:	ea4f 0b52 	mov.w	fp, r2, lsr #1
   2127a:	f022 0201 	bic.w	r2, r2, #1
   2127e:	eb05 05da 	add.w	r5, r5, sl, lsr #3
   21282:	4414      	add	r4, r2
   21284:	ea4f 1a1a 	mov.w	sl, sl, lsr #4
   21288:	f89e 2003 	ldrb.w	r2, [lr, #3]
   2128c:	eb04 0a4a 	add.w	sl, r4, sl, lsl #1
   21290:	f817 4009 	ldrb.w	r4, [r7, r9]
   21294:	f8cc 502c 	str.w	r5, [ip, #44]	@ 0x2c
   21298:	44aa      	add	sl, r5
   2129a:	fb0b a404 	mla	r4, fp, r4, sl
   2129e:	b112      	cbz	r2, 212a6 <video_boot_buf_calc+0xb6>
   212a0:	f50b 2b96 	add.w	fp, fp, #307200	@ 0x4b000
   212a4:	445c      	add	r4, fp
   212a6:	f1b8 0f00 	cmp.w	r8, #0
   212aa:	d001      	beq.n	212b0 <video_boot_buf_calc+0xc0>
   212ac:	f504 44aa 	add.w	r4, r4, #21760	@ 0x5500
   212b0:	3701      	adds	r7, #1
   212b2:	366c      	adds	r6, #108	@ 0x6c
   212b4:	f10c 0c6c 	add.w	ip, ip, #108	@ 0x6c
   212b8:	2f03      	cmp	r7, #3
   212ba:	d1cc      	bne.n	21256 <video_boot_buf_calc+0x66>
   212bc:	f89d 2223 	ldrb.w	r2, [sp, #547]	@ 0x223
   212c0:	b162      	cbz	r2, 212dc <video_boot_buf_calc+0xec>
   212c2:	e9dd 255e 	ldrd	r2, r5, [sp, #376]	@ 0x178
   212c6:	436a      	muls	r2, r5
   212c8:	4d23      	ldr	r5, [pc, #140]	@ (21358 <video_boot_buf_calc+0x168>)
   212ca:	792d      	ldrb	r5, [r5, #4]
   212cc:	436a      	muls	r2, r5
   212ce:	eb02 0242 	add.w	r2, r2, r2, lsl #1
   212d2:	f502 223b 	add.w	r2, r2, #765952	@ 0xbb000
   212d6:	f502 6200 	add.w	r2, r2, #2048	@ 0x800
   212da:	4414      	add	r4, r2
   212dc:	f89d 273c 	ldrb.w	r2, [sp, #1852]	@ 0x73c
   212e0:	b342      	cbz	r2, 21334 <video_boot_buf_calc+0x144>
   212e2:	434b      	muls	r3, r1
   212e4:	f8dd 26e4 	ldr.w	r2, [sp, #1764]	@ 0x6e4
   212e8:	eb03 0143 	add.w	r1, r3, r3, lsl #1
   212ec:	f022 4260 	bic.w	r2, r2, #3758096384	@ 0xe0000000
   212f0:	091e      	lsrs	r6, r3, #4
   212f2:	eb02 02d3 	add.w	r2, r2, r3, lsr #3
   212f6:	f021 0301 	bic.w	r3, r1, #1
   212fa:	084d      	lsrs	r5, r1, #1
   212fc:	4916      	ldr	r1, [pc, #88]	@ (21358 <video_boot_buf_calc+0x168>)
   212fe:	eb03 0346 	add.w	r3, r3, r6, lsl #1
   21302:	f8c0 26d4 	str.w	r2, [r0, #1748]	@ 0x6d4
   21306:	78c9      	ldrb	r1, [r1, #3]
   21308:	f503 13d0 	add.w	r3, r3, #1703936	@ 0x1a0000
   2130c:	f503 5380 	add.w	r3, r3, #4096	@ 0x1000
   21310:	4413      	add	r3, r2
   21312:	fb05 3301 	mla	r3, r5, r1, r3
   21316:	441c      	add	r4, r3
   21318:	4b10      	ldr	r3, [pc, #64]	@ (2135c <video_boot_buf_calc+0x16c>)
   2131a:	781b      	ldrb	r3, [r3, #0]
   2131c:	b123      	cbz	r3, 21328 <video_boot_buf_calc+0x138>
   2131e:	4b10      	ldr	r3, [pc, #64]	@ (21360 <video_boot_buf_calc+0x170>)
   21320:	2103      	movs	r1, #3
   21322:	4810      	ldr	r0, [pc, #64]	@ (21364 <video_boot_buf_calc+0x174>)
   21324:	69db      	ldr	r3, [r3, #28]
   21326:	4798      	blx	r3
   21328:	f89d 373d 	ldrb.w	r3, [sp, #1853]	@ 0x73d
   2132c:	b113      	cbz	r3, 21334 <video_boot_buf_calc+0x144>
   2132e:	f505 2596 	add.w	r5, r5, #307200	@ 0x4b000
   21332:	442c      	add	r4, r5
   21334:	06e3      	lsls	r3, r4, #27
   21336:	bf1c      	itt	ne
   21338:	f024 041f 	bicne.w	r4, r4, #31
   2133c:	3420      	addne	r4, #32
   2133e:	4620      	mov	r0, r4
   21340:	e8bd 4ff8 	ldmia.w	sp!, {r3, r4, r5, r6, r7, r8, r9, sl, fp, lr}
   21344:	b004      	add	sp, #16
   21346:	4770      	bx	lr
   21348:	f44f 60b4 	mov.w	r0, #1440	@ 0x5a0
   2134c:	f44f 6220 	mov.w	r2, #2560	@ 0xa00
   21350:	e765      	b.n	2121e <video_boot_buf_calc+0x2e>
   21352:	f504 24fa 	add.w	r4, r4, #512000	@ 0x7d000
   21356:	e76f      	b.n	21238 <video_boot_buf_calc+0x48>
   21358:	00020300 	.word	0x00020300
   2135c:	0001a2a0 	.word	0x0001a2a0
   21360:	100bc800 	.word	0x100bc800
   21364:	20101308 	.word	0x20101308
   21368:	00020308 	.word	0x00020308

0002136c <video_boot_calcu_meta_size>:
   2136c:	e92d 4ff8 	stmdb	sp!, {r3, r4, r5, r6, r7, r8, r9, sl, fp, lr}
   21370:	4c37      	ldr	r4, [pc, #220]	@ (21450 <video_boot_calcu_meta_size+0xe4>)
   21372:	2500      	movs	r5, #0
   21374:	4607      	mov	r7, r0
   21376:	468b      	mov	fp, r1
   21378:	f8d4 3688 	ldr.w	r3, [r4, #1672]	@ 0x688
   2137c:	46a8      	mov	r8, r5
   2137e:	4e35      	ldr	r6, [pc, #212]	@ (21454 <video_boot_calcu_meta_size+0xe8>)
   21380:	2b00      	cmp	r3, #0
   21382:	f8df a0dc 	ldr.w	sl, [pc, #220]	@ 21460 <video_boot_calcu_meta_size+0xf4>
   21386:	bf14      	ite	ne
   21388:	f04f 0902 	movne.w	r9, #2
   2138c:	f04f 0901 	moveq.w	r9, #1
   21390:	2d01      	cmp	r5, #1
   21392:	d102      	bne.n	2139a <video_boot_calcu_meta_size+0x2e>
   21394:	f8d4 3688 	ldr.w	r3, [r4, #1672]	@ 0x688
   21398:	b923      	cbnz	r3, 213a4 <video_boot_calcu_meta_size+0x38>
   2139a:	f8d4 1654 	ldr.w	r1, [r4, #1620]	@ 0x654
   2139e:	f1b8 0f00 	cmp.w	r8, #0
   213a2:	d03f      	beq.n	21424 <video_boot_calcu_meta_size+0xb8>
   213a4:	f8d4 1654 	ldr.w	r1, [r4, #1620]	@ 0x654
   213a8:	f04f 0801 	mov.w	r8, #1
   213ac:	f601 1104 	addw	r1, r1, #2308	@ 0x904
   213b0:	eb01 73d1 	add.w	r3, r1, r1, lsr #31
   213b4:	eb01 0163 	add.w	r1, r1, r3, asr #1
   213b8:	f011 031f 	ands.w	r3, r1, #31
   213bc:	d007      	beq.n	213ce <video_boot_calcu_meta_size+0x62>
   213be:	424a      	negs	r2, r1
   213c0:	f002 021f 	and.w	r2, r2, #31
   213c4:	bf58      	it	pl
   213c6:	4253      	negpl	r3, r2
   213c8:	f1c3 0320 	rsb	r3, r3, #32
   213cc:	4419      	add	r1, r3
   213ce:	23ff      	movs	r3, #255	@ 0xff
   213d0:	fb91 f3f3 	sdiv	r3, r1, r3
   213d4:	f1b8 0f00 	cmp.w	r8, #0
   213d8:	d026      	beq.n	21428 <video_boot_calcu_meta_size+0xbc>
   213da:	f5b1 5f80 	cmp.w	r1, #4096	@ 0x1000
   213de:	f8c4 368c 	str.w	r3, [r4, #1676]	@ 0x68c
   213e2:	f8c4 1690 	str.w	r1, [r4, #1680]	@ 0x690
   213e6:	d911      	bls.n	2140c <video_boot_calcu_meta_size+0xa0>
   213e8:	7833      	ldrb	r3, [r6, #0]
   213ea:	b12b      	cbz	r3, 213f8 <video_boot_calcu_meta_size+0x8c>
   213ec:	f8da 301c 	ldr.w	r3, [sl, #28]
   213f0:	f44f 5280 	mov.w	r2, #4096	@ 0x1000
   213f4:	4818      	ldr	r0, [pc, #96]	@ (21458 <video_boot_calcu_meta_size+0xec>)
   213f6:	4798      	blx	r3
   213f8:	f44f 5180 	mov.w	r1, #4096	@ 0x1000
   213fc:	f8c4 1690 	str.w	r1, [r4, #1680]	@ 0x690
   21400:	7833      	ldrb	r3, [r6, #0]
   21402:	b11b      	cbz	r3, 2140c <video_boot_calcu_meta_size+0xa0>
   21404:	f8da 301c 	ldr.w	r3, [sl, #28]
   21408:	4814      	ldr	r0, [pc, #80]	@ (2145c <video_boot_calcu_meta_size+0xf0>)
   2140a:	4798      	blx	r3
   2140c:	3501      	adds	r5, #1
   2140e:	45a9      	cmp	r9, r5
   21410:	d1be      	bne.n	21390 <video_boot_calcu_meta_size+0x24>
   21412:	f8d4 3684 	ldr.w	r3, [r4, #1668]	@ 0x684
   21416:	603b      	str	r3, [r7, #0]
   21418:	f8d4 3690 	ldr.w	r3, [r4, #1680]	@ 0x690
   2141c:	f8cb 3000 	str.w	r3, [fp]
   21420:	e8bd 8ff8 	ldmia.w	sp!, {r3, r4, r5, r6, r7, r8, r9, sl, fp, pc}
   21424:	31a4      	adds	r1, #164	@ 0xa4
   21426:	e7c3      	b.n	213b0 <video_boot_calcu_meta_size+0x44>
   21428:	f5b1 5f80 	cmp.w	r1, #4096	@ 0x1000
   2142c:	f8c4 3680 	str.w	r3, [r4, #1664]	@ 0x680
   21430:	f8c4 1684 	str.w	r1, [r4, #1668]	@ 0x684
   21434:	d9ea      	bls.n	2140c <video_boot_calcu_meta_size+0xa0>
   21436:	7833      	ldrb	r3, [r6, #0]
   21438:	b12b      	cbz	r3, 21446 <video_boot_calcu_meta_size+0xda>
   2143a:	f8da 301c 	ldr.w	r3, [sl, #28]
   2143e:	f44f 5280 	mov.w	r2, #4096	@ 0x1000
   21442:	4805      	ldr	r0, [pc, #20]	@ (21458 <video_boot_calcu_meta_size+0xec>)
   21444:	4798      	blx	r3
   21446:	f44f 5180 	mov.w	r1, #4096	@ 0x1000
   2144a:	f8c4 1684 	str.w	r1, [r4, #1668]	@ 0x684
   2144e:	e7d7      	b.n	21400 <video_boot_calcu_meta_size+0x94>
   21450:	00020308 	.word	0x00020308
   21454:	0001a2a0 	.word	0x0001a2a0
   21458:	2010131d 	.word	0x2010131d
   2145c:	20101348 	.word	0x20101348
   21460:	100bc800 	.word	0x100bc800

00021464 <video_boot_open>:
   21464:	4baf      	ldr	r3, [pc, #700]	@ (21724 <video_boot_open+0x2c0>)
   21466:	f8d3 21d8 	ldr.w	r2, [r3, #472]	@ 0x1d8
   2146a:	68cb      	ldr	r3, [r1, #12]
   2146c:	e92d 4ff0 	stmdb	sp!, {r4, r5, r6, r7, r8, r9, sl, fp, lr}
   21470:	460c      	mov	r4, r1
   21472:	680e      	ldr	r6, [r1, #0]
   21474:	f103 010f 	add.w	r1, r3, #15
   21478:	b0a5      	sub	sp, #148	@ 0x94
   2147a:	6967      	ldr	r7, [r4, #20]
   2147c:	f021 010f 	bic.w	r1, r1, #15
   21480:	9006      	str	r0, [sp, #24]
   21482:	6a25      	ldr	r5, [r4, #32]
   21484:	9103      	str	r1, [sp, #12]
   21486:	6921      	ldr	r1, [r4, #16]
   21488:	9104      	str	r1, [sp, #16]
   2148a:	9903      	ldr	r1, [sp, #12]
   2148c:	eba1 0803 	sub.w	r8, r1, r3
   21490:	eb08 78d8 	add.w	r8, r8, r8, lsr #31
   21494:	ea4f 0168 	mov.w	r1, r8, asr #1
   21498:	9107      	str	r1, [sp, #28]
   2149a:	e9dd 0103 	ldrd	r0, r1, [sp, #12]
   2149e:	4341      	muls	r1, r0
   214a0:	bf48      	it	mi
   214a2:	3107      	addmi	r1, #7
   214a4:	2e03      	cmp	r6, #3
   214a6:	ea4f 08e1 	mov.w	r8, r1, asr #3
   214aa:	bf96      	itet	ls
   214ac:	f027 4160 	bicls.w	r1, r7, #3758096384	@ 0xe0000000
   214b0:	2100      	movhi	r1, #0
   214b2:	4441      	addls	r1, r8
   214b4:	9105      	str	r1, [sp, #20]
   214b6:	2d00      	cmp	r5, #0
   214b8:	d055      	beq.n	21566 <video_boot_open+0x102>
   214ba:	3d01      	subs	r5, #1
   214bc:	d058      	beq.n	21570 <video_boot_open+0x10c>
   214be:	087f      	lsrs	r7, r7, #1
   214c0:	f04f 0930 	mov.w	r9, #48	@ 0x30
   214c4:	f04f 0b19 	mov.w	fp, #25
   214c8:	6e21      	ldr	r1, [r4, #96]	@ 0x60
   214ca:	1e48      	subs	r0, r1, #1
   214cc:	2832      	cmp	r0, #50	@ 0x32
   214ce:	bf98      	it	ls
   214d0:	468b      	movls	fp, r1
   214d2:	6e61      	ldr	r1, [r4, #100]	@ 0x64
   214d4:	1e48      	subs	r0, r1, #1
   214d6:	e9cd 3208 	strd	r3, r2, [sp, #32]
   214da:	2832      	cmp	r0, #50	@ 0x32
   214dc:	bf98      	it	ls
   214de:	4689      	movls	r9, r1
   214e0:	f00a fe00 	bl	2c0e4 <hal_video_get_adp>
   214e4:	eb00 0a86 	add.w	sl, r0, r6, lsl #2
   214e8:	9b03      	ldr	r3, [sp, #12]
   214ea:	4684      	mov	ip, r0
   214ec:	f04f 0e01 	mov.w	lr, #1
   214f0:	f8da 0004 	ldr.w	r0, [sl, #4]
   214f4:	2103      	movs	r1, #3
   214f6:	9a09      	ldr	r2, [sp, #36]	@ 0x24
   214f8:	6243      	str	r3, [r0, #36]	@ 0x24
   214fa:	9b04      	ldr	r3, [sp, #16]
   214fc:	6283      	str	r3, [r0, #40]	@ 0x28
   214fe:	9b08      	ldr	r3, [sp, #32]
   21500:	61c3      	str	r3, [r0, #28]
   21502:	9b04      	ldr	r3, [sp, #16]
   21504:	6203      	str	r3, [r0, #32]
   21506:	9b07      	ldr	r3, [sp, #28]
   21508:	f8c0 32ec 	str.w	r3, [r0, #748]	@ 0x2ec
   2150c:	6aa3      	ldr	r3, [r4, #40]	@ 0x28
   2150e:	f8c0 51b4 	str.w	r5, [r0, #436]	@ 0x1b4
   21512:	6865      	ldr	r5, [r4, #4]
   21514:	f8c0 32e8 	str.w	r3, [r0, #744]	@ 0x2e8
   21518:	2300      	movs	r3, #0
   2151a:	4575      	cmp	r5, lr
   2151c:	f8c0 71cc 	str.w	r7, [r0, #460]	@ 0x1cc
   21520:	6005      	str	r5, [r0, #0]
   21522:	f8c0 e4c0 	str.w	lr, [r0, #1216]	@ 0x4c0
   21526:	6341      	str	r1, [r0, #52]	@ 0x34
   21528:	f8c0 34bc 	str.w	r3, [r0, #1212]	@ 0x4bc
   2152c:	e9c0 b96f 	strd	fp, r9, [r0, #444]	@ 0x1bc
   21530:	d122      	bne.n	21578 <video_boot_open+0x114>
   21532:	2740      	movs	r7, #64	@ 0x40
   21534:	2108      	movs	r1, #8
   21536:	f04f 0910 	mov.w	r9, #16
   2153a:	f880 3030 	strb.w	r3, [r0, #48]	@ 0x30
   2153e:	f8c0 3234 	str.w	r3, [r0, #564]	@ 0x234
   21542:	69a3      	ldr	r3, [r4, #24]
   21544:	e9c0 7113 	strd	r7, r1, [r0, #76]	@ 0x4c
   21548:	2104      	movs	r1, #4
   2154a:	2702      	movs	r7, #2
   2154c:	6043      	str	r3, [r0, #4]
   2154e:	e9c0 9115 	strd	r9, r1, [r0, #84]	@ 0x54
   21552:	e9c0 7117 	strd	r7, r1, [r0, #92]	@ 0x5c
   21556:	21b4      	movs	r1, #180	@ 0xb4
   21558:	f8c0 123c 	str.w	r1, [r0, #572]	@ 0x23c
   2155c:	69e3      	ldr	r3, [r4, #28]
   2155e:	60c2      	str	r2, [r0, #12]
   21560:	f8c0 31b0 	str.w	r3, [r0, #432]	@ 0x1b0
   21564:	e010      	b.n	21588 <video_boot_open+0x124>
   21566:	46ab      	mov	fp, r5
   21568:	f04f 0933 	mov.w	r9, #51	@ 0x33
   2156c:	2501      	movs	r5, #1
   2156e:	e7ab      	b.n	214c8 <video_boot_open+0x64>
   21570:	46ab      	mov	fp, r5
   21572:	f04f 0933 	mov.w	r9, #51	@ 0x33
   21576:	e7a7      	b.n	214c8 <video_boot_open+0x64>
   21578:	2d08      	cmp	r5, #8
   2157a:	69a7      	ldr	r7, [r4, #24]
   2157c:	d11c      	bne.n	215b8 <video_boot_open+0x154>
   2157e:	6343      	str	r3, [r0, #52]	@ 0x34
   21580:	f880 1030 	strb.w	r1, [r0, #48]	@ 0x30
   21584:	63c1      	str	r1, [r0, #60]	@ 0x3c
   21586:	60c7      	str	r7, [r0, #12]
   21588:	2300      	movs	r3, #0
   2158a:	4966      	ldr	r1, [pc, #408]	@ (21724 <video_boot_open+0x2c0>)
   2158c:	6443      	str	r3, [r0, #68]	@ 0x44
   2158e:	6823      	ldr	r3, [r4, #0]
   21590:	f8c0 34a0 	str.w	r3, [r0, #1184]	@ 0x4a0
   21594:	f8d1 31dc 	ldr.w	r3, [r1, #476]	@ 0x1dc
   21598:	b113      	cbz	r3, 215a0 <video_boot_open+0x13c>
   2159a:	2301      	movs	r3, #1
   2159c:	f8c0 3490 	str.w	r3, [r0, #1168]	@ 0x490
   215a0:	2e03      	cmp	r6, #3
   215a2:	d024      	beq.n	215ee <video_boot_open+0x18a>
   215a4:	9b06      	ldr	r3, [sp, #24]
   215a6:	18cb      	adds	r3, r1, r3
   215a8:	f893 31fc 	ldrb.w	r3, [r3, #508]	@ 0x1fc
   215ac:	2b00      	cmp	r3, #0
   215ae:	f040 80ac 	bne.w	2170a <video_boot_open+0x2a6>
   215b2:	4699      	mov	r9, r3
   215b4:	469b      	mov	fp, r3
   215b6:	e034      	b.n	21622 <video_boot_open+0x1be>
   215b8:	2d10      	cmp	r5, #16
   215ba:	d104      	bne.n	215c6 <video_boot_open+0x162>
   215bc:	6343      	str	r3, [r0, #52]	@ 0x34
   215be:	2304      	movs	r3, #4
   215c0:	f880 3030 	strb.w	r3, [r0, #48]	@ 0x30
   215c4:	e7de      	b.n	21584 <video_boot_open+0x120>
   215c6:	2310      	movs	r3, #16
   215c8:	2108      	movs	r1, #8
   215ca:	f880 e030 	strb.w	lr, [r0, #48]	@ 0x30
   215ce:	6543      	str	r3, [r0, #84]	@ 0x54
   215d0:	6047      	str	r7, [r0, #4]
   215d2:	e9c0 3113 	strd	r3, r1, [r0, #76]	@ 0x4c
   215d6:	2304      	movs	r3, #4
   215d8:	e9c0 3e16 	strd	r3, lr, [r0, #88]	@ 0x58
   215dc:	2302      	movs	r3, #2
   215de:	6603      	str	r3, [r0, #96]	@ 0x60
   215e0:	232a      	movs	r3, #42	@ 0x2a
   215e2:	f8c0 323c 	str.w	r3, [r0, #572]	@ 0x23c
   215e6:	230a      	movs	r3, #10
   215e8:	f8c0 3234 	str.w	r3, [r0, #564]	@ 0x234
   215ec:	e7b6      	b.n	2155c <video_boot_open+0xf8>
   215ee:	f891 3715 	ldrb.w	r3, [r1, #1813]	@ 0x715
   215f2:	2b00      	cmp	r3, #0
   215f4:	d0dd      	beq.n	215b2 <video_boot_open+0x14e>
   215f6:	f04f 0901 	mov.w	r9, #1
   215fa:	f04f 0b00 	mov.w	fp, #0
   215fe:	2301      	movs	r3, #1
   21600:	f045 0504 	orr.w	r5, r5, #4
   21604:	6383      	str	r3, [r0, #56]	@ 0x38
   21606:	6005      	str	r5, [r0, #0]
   21608:	e9d4 3203 	ldrd	r3, r2, [r4, #12]
   2160c:	4353      	muls	r3, r2
   2160e:	eb03 0343 	add.w	r3, r3, r3, lsl #1
   21612:	085b      	lsrs	r3, r3, #1
   21614:	f8c0 34b4 	str.w	r3, [r0, #1204]	@ 0x4b4
   21618:	f8c0 34b8 	str.w	r3, [r0, #1208]	@ 0x4b8
   2161c:	6a63      	ldr	r3, [r4, #36]	@ 0x24
   2161e:	f8c0 3470 	str.w	r3, [r0, #1136]	@ 0x470
   21622:	4d40      	ldr	r5, [pc, #256]	@ (21724 <video_boot_open+0x2c0>)
   21624:	f8d5 33b4 	ldr.w	r3, [r5, #948]	@ 0x3b4
   21628:	2b01      	cmp	r3, #1
   2162a:	d108      	bne.n	2163e <video_boot_open+0x1da>
   2162c:	b13e      	cbz	r6, 2163e <video_boot_open+0x1da>
   2162e:	f8dc 0004 	ldr.w	r0, [ip, #4]
   21632:	2300      	movs	r3, #0
   21634:	f8c0 34c0 	str.w	r3, [r0, #1216]	@ 0x4c0
   21638:	f7ff fc98 	bl	20f6c <dcache_clean_invalidate_by_addr.constprop.0>
   2163c:	4629      	mov	r1, r5
   2163e:	f8da 2004 	ldr.w	r2, [sl, #4]
   21642:	2001      	movs	r0, #1
   21644:	9b05      	ldr	r3, [sp, #20]
   21646:	f8c2 84ac 	str.w	r8, [r2, #1196]	@ 0x4ac
   2164a:	f8c2 34a8 	str.w	r3, [r2, #1192]	@ 0x4a8
   2164e:	4b36      	ldr	r3, [pc, #216]	@ (21728 <video_boot_open+0x2c4>)
   21650:	f8c2 0508 	str.w	r0, [r2, #1288]	@ 0x508
   21654:	5d9b      	ldrb	r3, [r3, r6]
   21656:	f8c2 34b0 	str.w	r3, [r2, #1200]	@ 0x4b0
   2165a:	f8d5 33c4 	ldr.w	r3, [r5, #964]	@ 0x3c4
   2165e:	b15b      	cbz	r3, 21678 <video_boot_open+0x214>
   21660:	f8d5 33c8 	ldr.w	r3, [r5, #968]	@ 0x3c8
   21664:	f8c2 04d4 	str.w	r0, [r2, #1236]	@ 0x4d4
   21668:	f8c2 34dc 	str.w	r3, [r2, #1244]	@ 0x4dc
   2166c:	f8d5 33cc 	ldr.w	r3, [r5, #972]	@ 0x3cc
   21670:	f8c2 0514 	str.w	r0, [r2, #1300]	@ 0x514
   21674:	f8c2 34d8 	str.w	r3, [r2, #1240]	@ 0x4d8
   21678:	f8d5 33d0 	ldr.w	r3, [r5, #976]	@ 0x3d0
   2167c:	b163      	cbz	r3, 21698 <video_boot_open+0x234>
   2167e:	2301      	movs	r3, #1
   21680:	f8c2 34e0 	str.w	r3, [r2, #1248]	@ 0x4e0
   21684:	f8c2 3514 	str.w	r3, [r2, #1300]	@ 0x514
   21688:	f8d5 33d4 	ldr.w	r3, [r5, #980]	@ 0x3d4
   2168c:	f8c2 34e4 	str.w	r3, [r2, #1252]	@ 0x4e4
   21690:	f8d5 33d8 	ldr.w	r3, [r5, #984]	@ 0x3d8
   21694:	f8c2 34e8 	str.w	r3, [r2, #1256]	@ 0x4e8
   21698:	f8d5 33dc 	ldr.w	r3, [r5, #988]	@ 0x3dc
   2169c:	b123      	cbz	r3, 216a8 <video_boot_open+0x244>
   2169e:	2001      	movs	r0, #1
   216a0:	f8c2 350c 	str.w	r3, [r2, #1292]	@ 0x50c
   216a4:	f8c2 0514 	str.w	r0, [r2, #1300]	@ 0x514
   216a8:	f8d5 33e0 	ldr.w	r3, [r5, #992]	@ 0x3e0
   216ac:	b123      	cbz	r3, 216b8 <video_boot_open+0x254>
   216ae:	2001      	movs	r0, #1
   216b0:	f8c2 3510 	str.w	r3, [r2, #1296]	@ 0x510
   216b4:	f8c2 0514 	str.w	r0, [r2, #1300]	@ 0x514
   216b8:	2e03      	cmp	r6, #3
   216ba:	bf17      	itett	ne
   216bc:	9b06      	ldrne	r3, [sp, #24]
   216be:	f895 3716 	ldrbeq.w	r3, [r5, #1814]	@ 0x716
   216c2:	195b      	addne	r3, r3, r5
   216c4:	4618      	movne	r0, r3
   216c6:	bf18      	it	ne
   216c8:	f890 3200 	ldrbne.w	r3, [r0, #512]	@ 0x200
   216cc:	b123      	cbz	r3, 216d8 <video_boot_open+0x274>
   216ce:	2001      	movs	r0, #1
   216d0:	f8c2 3504 	str.w	r3, [r2, #1284]	@ 0x504
   216d4:	f8c2 0514 	str.w	r0, [r2, #1300]	@ 0x514
   216d8:	f8d5 3694 	ldr.w	r3, [r5, #1684]	@ 0x694
   216dc:	6c20      	ldr	r0, [r4, #64]	@ 0x40
   216de:	2b00      	cmp	r3, #0
   216e0:	f040 8160 	bne.w	219a4 <video_boot_open+0x540>
   216e4:	e9d5 7274 	ldrd	r7, r2, [r5, #464]	@ 0x1d0
   216e8:	b9a0      	cbnz	r0, 21714 <video_boot_open+0x2b0>
   216ea:	4690      	mov	r8, r2
   216ec:	2f00      	cmp	r7, #0
   216ee:	dd02      	ble.n	216f6 <video_boot_open+0x292>
   216f0:	f1b8 0f00 	cmp.w	r8, #0
   216f4:	dc20      	bgt.n	21738 <video_boot_open+0x2d4>
   216f6:	4b0d      	ldr	r3, [pc, #52]	@ (2172c <video_boot_open+0x2c8>)
   216f8:	781b      	ldrb	r3, [r3, #0]
   216fa:	2b00      	cmp	r3, #0
   216fc:	f000 814f 	beq.w	2199e <video_boot_open+0x53a>
   21700:	4b0b      	ldr	r3, [pc, #44]	@ (21730 <video_boot_open+0x2cc>)
   21702:	480c      	ldr	r0, [pc, #48]	@ (21734 <video_boot_open+0x2d0>)
   21704:	69db      	ldr	r3, [r3, #28]
   21706:	4798      	blx	r3
   21708:	e149      	b.n	2199e <video_boot_open+0x53a>
   2170a:	f04f 0900 	mov.w	r9, #0
   2170e:	f04f 0b01 	mov.w	fp, #1
   21712:	e774      	b.n	215fe <video_boot_open+0x19a>
   21714:	6c63      	ldr	r3, [r4, #68]	@ 0x44
   21716:	6ce7      	ldr	r7, [r4, #76]	@ 0x4c
   21718:	6d22      	ldr	r2, [r4, #80]	@ 0x50
   2171a:	1aff      	subs	r7, r7, r3
   2171c:	6ca3      	ldr	r3, [r4, #72]	@ 0x48
   2171e:	eba2 0803 	sub.w	r8, r2, r3
   21722:	e7e3      	b.n	216ec <video_boot_open+0x288>
   21724:	00020308 	.word	0x00020308
   21728:	00020300 	.word	0x00020300
   2172c:	0001a2a0 	.word	0x0001a2a0
   21730:	100bc800 	.word	0x100bc800
   21734:	20101364 	.word	0x20101364
   21738:	9b03      	ldr	r3, [sp, #12]
   2173a:	429f      	cmp	r7, r3
   2173c:	9b04      	ldr	r3, [sp, #16]
   2173e:	f2c0 80cb 	blt.w	218d8 <video_boot_open+0x474>
   21742:	4598      	cmp	r8, r3
   21744:	f2c0 8147 	blt.w	219d6 <video_boot_open+0x572>
   21748:	b178      	cbz	r0, 2176a <video_boot_open+0x306>
   2174a:	4ba4      	ldr	r3, [pc, #656]	@ (219dc <video_boot_open+0x578>)
   2174c:	6ca2      	ldr	r2, [r4, #72]	@ 0x48
   2174e:	eb03 0386 	add.w	r3, r3, r6, lsl #2
   21752:	6858      	ldr	r0, [r3, #4]
   21754:	6c63      	ldr	r3, [r4, #68]	@ 0x44
   21756:	f8c0 24c8 	str.w	r2, [r0, #1224]	@ 0x4c8
   2175a:	f8c0 34c4 	str.w	r3, [r0, #1220]	@ 0x4c4
   2175e:	f8c0 74cc 	str.w	r7, [r0, #1228]	@ 0x4cc
   21762:	f8c0 84d0 	str.w	r8, [r0, #1232]	@ 0x4d0
   21766:	f7ff fc01 	bl	20f6c <dcache_clean_invalidate_by_addr.constprop.0>
   2176a:	6d63      	ldr	r3, [r4, #84]	@ 0x54
   2176c:	b11b      	cbz	r3, 21776 <video_boot_open+0x312>
   2176e:	f8da 2004 	ldr.w	r2, [sl, #4]
   21772:	f8c2 323c 	str.w	r3, [r2, #572]	@ 0x23c
   21776:	6da3      	ldr	r3, [r4, #88]	@ 0x58
   21778:	b11b      	cbz	r3, 21782 <video_boot_open+0x31e>
   2177a:	f8da 2004 	ldr.w	r2, [sl, #4]
   2177e:	f8c2 3234 	str.w	r3, [r2, #564]	@ 0x234
   21782:	6de3      	ldr	r3, [r4, #92]	@ 0x5c
   21784:	b11b      	cbz	r3, 2178e <video_boot_open+0x32a>
   21786:	f8da 3004 	ldr.w	r3, [sl, #4]
   2178a:	2200      	movs	r2, #0
   2178c:	669a      	str	r2, [r3, #104]	@ 0x68
   2178e:	f8d5 353c 	ldr.w	r3, [r5, #1340]	@ 0x53c
   21792:	b11b      	cbz	r3, 2179c <video_boot_open+0x338>
   21794:	4992      	ldr	r1, [pc, #584]	@ (219e0 <video_boot_open+0x57c>)
   21796:	4630      	mov	r0, r6
   21798:	f7ff fc78 	bl	2108c <video_boot_set_private_mask>
   2179c:	f8d5 3650 	ldr.w	r3, [r5, #1616]	@ 0x650
   217a0:	2b00      	cmp	r3, #0
   217a2:	d032      	beq.n	2180a <video_boot_open+0x3a6>
   217a4:	a90c      	add	r1, sp, #48	@ 0x30
   217a6:	a80b      	add	r0, sp, #44	@ 0x2c
   217a8:	f7ff fde0 	bl	2136c <video_boot_calcu_meta_size>
   217ac:	f8da 3004 	ldr.w	r3, [sl, #4]
   217b0:	2001      	movs	r0, #1
   217b2:	990b      	ldr	r1, [sp, #44]	@ 0x2c
   217b4:	f8d5 2688 	ldr.w	r2, [r5, #1672]	@ 0x688
   217b8:	f8c3 0520 	str.w	r0, [r3, #1312]	@ 0x520
   217bc:	f8c3 1324 	str.w	r1, [r3, #804]	@ 0x324
   217c0:	b112      	cbz	r2, 217c8 <video_boot_open+0x364>
   217c2:	9a0c      	ldr	r2, [sp, #48]	@ 0x30
   217c4:	f8c3 2554 	str.w	r2, [r3, #1364]	@ 0x554
   217c8:	ea5b 0209 	orrs.w	r2, fp, r9
   217cc:	f8c3 0558 	str.w	r0, [r3, #1368]	@ 0x558
   217d0:	bf1c      	itt	ne
   217d2:	f8d5 2684 	ldrne.w	r2, [r5, #1668]	@ 0x684
   217d6:	f8c3 255c 	strne.w	r2, [r3, #1372]	@ 0x55c
   217da:	f5b1 5f80 	cmp.w	r1, #4096	@ 0x1000
   217de:	d914      	bls.n	2180a <video_boot_open+0x3a6>
   217e0:	4f80      	ldr	r7, [pc, #512]	@ (219e4 <video_boot_open+0x580>)
   217e2:	783b      	ldrb	r3, [r7, #0]
   217e4:	b12b      	cbz	r3, 217f2 <video_boot_open+0x38e>
   217e6:	4b80      	ldr	r3, [pc, #512]	@ (219e8 <video_boot_open+0x584>)
   217e8:	f44f 5280 	mov.w	r2, #4096	@ 0x1000
   217ec:	487f      	ldr	r0, [pc, #508]	@ (219ec <video_boot_open+0x588>)
   217ee:	69db      	ldr	r3, [r3, #28]
   217f0:	4798      	blx	r3
   217f2:	f8da 3004 	ldr.w	r3, [sl, #4]
   217f6:	f44f 5180 	mov.w	r1, #4096	@ 0x1000
   217fa:	f8c3 1324 	str.w	r1, [r3, #804]	@ 0x324
   217fe:	783b      	ldrb	r3, [r7, #0]
   21800:	b11b      	cbz	r3, 2180a <video_boot_open+0x3a6>
   21802:	4b79      	ldr	r3, [pc, #484]	@ (219e8 <video_boot_open+0x584>)
   21804:	487a      	ldr	r0, [pc, #488]	@ (219f0 <video_boot_open+0x58c>)
   21806:	69db      	ldr	r3, [r3, #28]
   21808:	4798      	blx	r3
   2180a:	f8da 2004 	ldr.w	r2, [sl, #4]
   2180e:	2101      	movs	r1, #1
   21810:	f8d5 3658 	ldr.w	r3, [r5, #1624]	@ 0x658
   21814:	f8c2 1514 	str.w	r1, [r2, #1300]	@ 0x514
   21818:	2b00      	cmp	r3, #0
   2181a:	f000 80d0 	beq.w	219be <video_boot_open+0x55a>
   2181e:	f8d5 3664 	ldr.w	r3, [r5, #1636]	@ 0x664
   21822:	930e      	str	r3, [sp, #56]	@ 0x38
   21824:	f8d5 3668 	ldr.w	r3, [r5, #1640]	@ 0x668
   21828:	930f      	str	r3, [sp, #60]	@ 0x3c
   2182a:	f8d5 365c 	ldr.w	r3, [r5, #1628]	@ 0x65c
   2182e:	930c      	str	r3, [sp, #48]	@ 0x30
   21830:	f8d5 3678 	ldr.w	r3, [r5, #1656]	@ 0x678
   21834:	9313      	str	r3, [sp, #76]	@ 0x4c
   21836:	f8d5 367c 	ldr.w	r3, [r5, #1660]	@ 0x67c
   2183a:	9314      	str	r3, [sp, #80]	@ 0x50
   2183c:	f8d5 3660 	ldr.w	r3, [r5, #1632]	@ 0x660
   21840:	930d      	str	r3, [sp, #52]	@ 0x34
   21842:	f8d5 3674 	ldr.w	r3, [r5, #1652]	@ 0x674
   21846:	9312      	str	r3, [sp, #72]	@ 0x48
   21848:	f8d5 3670 	ldr.w	r3, [r5, #1648]	@ 0x670
   2184c:	9311      	str	r3, [sp, #68]	@ 0x44
   2184e:	f8d5 366c 	ldr.w	r3, [r5, #1644]	@ 0x66c
   21852:	a90c      	add	r1, sp, #48	@ 0x30
   21854:	4630      	mov	r0, r6
   21856:	9310      	str	r3, [sp, #64]	@ 0x40
   21858:	f7ff fb92 	bl	20f80 <hal_video_set_isp_init_items.isra.0>
   2185c:	f8d5 3718 	ldr.w	r3, [r5, #1816]	@ 0x718
   21860:	b16b      	cbz	r3, 2187e <video_boot_open+0x41a>
   21862:	4b5e      	ldr	r3, [pc, #376]	@ (219dc <video_boot_open+0x578>)
   21864:	2501      	movs	r5, #1
   21866:	eb03 0686 	add.w	r6, r3, r6, lsl #2
   2186a:	6870      	ldr	r0, [r6, #4]
   2186c:	f8c0 5514 	str.w	r5, [r0, #1300]	@ 0x514
   21870:	f7ff fb7c 	bl	20f6c <dcache_clean_invalidate_by_addr.constprop.0>
   21874:	6870      	ldr	r0, [r6, #4]
   21876:	f8c0 5590 	str.w	r5, [r0, #1424]	@ 0x590
   2187a:	f7ff fb77 	bl	20f6c <dcache_clean_invalidate_by_addr.constprop.0>
   2187e:	6ea3      	ldr	r3, [r4, #104]	@ 0x68
   21880:	f8da 0004 	ldr.w	r0, [sl, #4]
   21884:	b113      	cbz	r3, 2188c <video_boot_open+0x428>
   21886:	2300      	movs	r3, #0
   21888:	f8c0 3410 	str.w	r3, [r0, #1040]	@ 0x410
   2188c:	6863      	ldr	r3, [r4, #4]
   2188e:	3b01      	subs	r3, #1
   21890:	2b01      	cmp	r3, #1
   21892:	d81b      	bhi.n	218cc <video_boot_open+0x468>
   21894:	f04f 32ff 	mov.w	r2, #4294967295	@ 0xffffffff
   21898:	2301      	movs	r3, #1
   2189a:	f06f 0503 	mvn.w	r5, #3
   2189e:	f8c0 21b8 	str.w	r2, [r0, #440]	@ 0x1b8
   218a2:	f06f 0204 	mvn.w	r2, #4
   218a6:	f8c0 3328 	str.w	r3, [r0, #808]	@ 0x328
   218aa:	f8c0 2218 	str.w	r2, [r0, #536]	@ 0x218
   218ae:	220f      	movs	r2, #15
   218b0:	f8c0 32e0 	str.w	r3, [r0, #736]	@ 0x2e0
   218b4:	f8c0 21f4 	str.w	r2, [r0, #500]	@ 0x1f4
   218b8:	2206      	movs	r2, #6
   218ba:	f8c0 31f0 	str.w	r3, [r0, #496]	@ 0x1f0
   218be:	e9c0 337a 	strd	r3, r3, [r0, #488]	@ 0x1e8
   218c2:	2303      	movs	r3, #3
   218c4:	e9c0 5280 	strd	r5, r2, [r0, #512]	@ 0x200
   218c8:	f8c0 3310 	str.w	r3, [r0, #784]	@ 0x310
   218cc:	f7ff fb4e 	bl	20f6c <dcache_clean_invalidate_by_addr.constprop.0>
   218d0:	2000      	movs	r0, #0
   218d2:	b025      	add	sp, #148	@ 0x94
   218d4:	e8bd 8ff0 	ldmia.w	sp!, {r4, r5, r6, r7, r8, r9, sl, fp, pc}
   218d8:	4598      	cmp	r8, r3
   218da:	dc54      	bgt.n	21986 <video_boot_open+0x522>
   218dc:	b136      	cbz	r6, 218ec <video_boot_open+0x488>
   218de:	4b41      	ldr	r3, [pc, #260]	@ (219e4 <video_boot_open+0x580>)
   218e0:	781b      	ldrb	r3, [r3, #0]
   218e2:	2b00      	cmp	r3, #0
   218e4:	d05b      	beq.n	2199e <video_boot_open+0x53a>
   218e6:	4b40      	ldr	r3, [pc, #256]	@ (219e8 <video_boot_open+0x584>)
   218e8:	4842      	ldr	r0, [pc, #264]	@ (219f4 <video_boot_open+0x590>)
   218ea:	e70b      	b.n	21704 <video_boot_open+0x2a0>
   218ec:	9b03      	ldr	r3, [sp, #12]
   218ee:	ebb3 0f47 	cmp.w	r3, r7, lsl #1
   218f2:	da03      	bge.n	218fc <video_boot_open+0x498>
   218f4:	9b04      	ldr	r3, [sp, #16]
   218f6:	ebb3 0f48 	cmp.w	r3, r8, lsl #1
   218fa:	db06      	blt.n	2190a <video_boot_open+0x4a6>
   218fc:	4b39      	ldr	r3, [pc, #228]	@ (219e4 <video_boot_open+0x580>)
   218fe:	781b      	ldrb	r3, [r3, #0]
   21900:	2b00      	cmp	r3, #0
   21902:	d04c      	beq.n	2199e <video_boot_open+0x53a>
   21904:	4b38      	ldr	r3, [pc, #224]	@ (219e8 <video_boot_open+0x584>)
   21906:	483c      	ldr	r0, [pc, #240]	@ (219f8 <video_boot_open+0x594>)
   21908:	e6fc      	b.n	21704 <video_boot_open+0x2a0>
   2190a:	9b03      	ldr	r3, [sp, #12]
   2190c:	f5b3 6f28 	cmp.w	r3, #2688	@ 0xa80
   21910:	dc03      	bgt.n	2191a <video_boot_open+0x4b6>
   21912:	9b04      	ldr	r3, [sp, #16]
   21914:	f5b3 6ff3 	cmp.w	r3, #1944	@ 0x798
   21918:	dd06      	ble.n	21928 <video_boot_open+0x4c4>
   2191a:	4b32      	ldr	r3, [pc, #200]	@ (219e4 <video_boot_open+0x580>)
   2191c:	781b      	ldrb	r3, [r3, #0]
   2191e:	2b00      	cmp	r3, #0
   21920:	d03d      	beq.n	2199e <video_boot_open+0x53a>
   21922:	4b31      	ldr	r3, [pc, #196]	@ (219e8 <video_boot_open+0x584>)
   21924:	4835      	ldr	r0, [pc, #212]	@ (219fc <video_boot_open+0x598>)
   21926:	e6ed      	b.n	21704 <video_boot_open+0x2a0>
   21928:	2301      	movs	r3, #1
   2192a:	2205      	movs	r2, #5
   2192c:	f8c1 3694 	str.w	r3, [r1, #1684]	@ 0x694
   21930:	4b2a      	ldr	r3, [pc, #168]	@ (219dc <video_boot_open+0x578>)
   21932:	6858      	ldr	r0, [r3, #4]
   21934:	f8c0 24fc 	str.w	r2, [r0, #1276]	@ 0x4fc
   21938:	f8c0 6500 	str.w	r6, [r0, #1280]	@ 0x500
   2193c:	f7ff fb16 	bl	20f6c <dcache_clean_invalidate_by_addr.constprop.0>
   21940:	6c22      	ldr	r2, [r4, #64]	@ 0x40
   21942:	4b26      	ldr	r3, [pc, #152]	@ (219dc <video_boot_open+0x578>)
   21944:	2a00      	cmp	r2, #0
   21946:	f43f af10 	beq.w	2176a <video_boot_open+0x306>
   2194a:	6858      	ldr	r0, [r3, #4]
   2194c:	4623      	mov	r3, r4
   2194e:	6ca2      	ldr	r2, [r4, #72]	@ 0x48
   21950:	f853 1f44 	ldr.w	r1, [r3, #68]!
   21954:	f8c0 74cc 	str.w	r7, [r0, #1228]	@ 0x4cc
   21958:	f8c0 14c4 	str.w	r1, [r0, #1220]	@ 0x4c4
   2195c:	f8c0 24c8 	str.w	r2, [r0, #1224]	@ 0x4c8
   21960:	f8c0 84d0 	str.w	r8, [r0, #1232]	@ 0x4d0
   21964:	9303      	str	r3, [sp, #12]
   21966:	f7ff fb01 	bl	20f6c <dcache_clean_invalidate_by_addr.constprop.0>
   2196a:	4f25      	ldr	r7, [pc, #148]	@ (21a00 <video_boot_open+0x59c>)
   2196c:	f104 0c54 	add.w	ip, r4, #84	@ 0x54
   21970:	9b03      	ldr	r3, [sp, #12]
   21972:	6818      	ldr	r0, [r3, #0]
   21974:	3308      	adds	r3, #8
   21976:	f853 1c04 	ldr.w	r1, [r3, #-4]
   2197a:	463a      	mov	r2, r7
   2197c:	4563      	cmp	r3, ip
   2197e:	c203      	stmia	r2!, {r0, r1}
   21980:	4617      	mov	r7, r2
   21982:	d1f6      	bne.n	21972 <video_boot_open+0x50e>
   21984:	e6f1      	b.n	2176a <video_boot_open+0x306>
   21986:	4b17      	ldr	r3, [pc, #92]	@ (219e4 <video_boot_open+0x580>)
   21988:	781b      	ldrb	r3, [r3, #0]
   2198a:	b143      	cbz	r3, 2199e <video_boot_open+0x53a>
   2198c:	9b04      	ldr	r3, [sp, #16]
   2198e:	4642      	mov	r2, r8
   21990:	4c15      	ldr	r4, [pc, #84]	@ (219e8 <video_boot_open+0x584>)
   21992:	4639      	mov	r1, r7
   21994:	9300      	str	r3, [sp, #0]
   21996:	481b      	ldr	r0, [pc, #108]	@ (21a04 <video_boot_open+0x5a0>)
   21998:	9b03      	ldr	r3, [sp, #12]
   2199a:	69e4      	ldr	r4, [r4, #28]
   2199c:	47a0      	blx	r4
   2199e:	f04f 30ff 	mov.w	r0, #4294967295	@ 0xffffffff
   219a2:	e796      	b.n	218d2 <video_boot_open+0x46e>
   219a4:	2800      	cmp	r0, #0
   219a6:	f43f aee0 	beq.w	2176a <video_boot_open+0x306>
   219aa:	2e00      	cmp	r6, #0
   219ac:	f43f aedd 	beq.w	2176a <video_boot_open+0x306>
   219b0:	4b0c      	ldr	r3, [pc, #48]	@ (219e4 <video_boot_open+0x580>)
   219b2:	781b      	ldrb	r3, [r3, #0]
   219b4:	2b00      	cmp	r3, #0
   219b6:	d0f2      	beq.n	2199e <video_boot_open+0x53a>
   219b8:	4b0b      	ldr	r3, [pc, #44]	@ (219e8 <video_boot_open+0x584>)
   219ba:	4813      	ldr	r0, [pc, #76]	@ (21a08 <video_boot_open+0x5a4>)
   219bc:	e6a2      	b.n	21704 <video_boot_open+0x2a0>
   219be:	2232      	movs	r2, #50	@ 0x32
   219c0:	910c      	str	r1, [sp, #48]	@ 0x30
   219c2:	21f0      	movs	r1, #240	@ 0xf0
   219c4:	930e      	str	r3, [sp, #56]	@ 0x38
   219c6:	920f      	str	r2, [sp, #60]	@ 0x3c
   219c8:	920d      	str	r2, [sp, #52]	@ 0x34
   219ca:	9212      	str	r2, [sp, #72]	@ 0x48
   219cc:	2202      	movs	r2, #2
   219ce:	9313      	str	r3, [sp, #76]	@ 0x4c
   219d0:	9114      	str	r1, [sp, #80]	@ 0x50
   219d2:	9211      	str	r2, [sp, #68]	@ 0x44
   219d4:	e73d      	b.n	21852 <video_boot_open+0x3ee>
   219d6:	9b03      	ldr	r3, [sp, #12]
   219d8:	429f      	cmp	r7, r3
   219da:	e77e      	b.n	218da <video_boot_open+0x476>
   219dc:	00020e80 	.word	0x00020e80
   219e0:	00020844 	.word	0x00020844
   219e4:	0001a2a0 	.word	0x0001a2a0
   219e8:	100bc800 	.word	0x100bc800
   219ec:	2010131d 	.word	0x2010131d
   219f0:	20101348 	.word	0x20101348
   219f4:	20101387 	.word	0x20101387
   219f8:	201013aa 	.word	0x201013aa
   219fc:	201013f8 	.word	0x201013f8
   21a00:	000209a0 	.word	0x000209a0
   21a04:	20101427 	.word	0x20101427
   21a08:	20101452 	.word	0x20101452

00021a0c <video_btldr_process>:
   21a0c:	e92d 4ff0 	stmdb	sp!, {r4, r5, r6, r7, r8, r9, sl, fp, lr}
   21a10:	4680      	mov	r8, r0
   21a12:	f2ad 7d14 	subw	sp, sp, #1812	@ 0x714
   21a16:	b948      	cbnz	r0, 21a2c <video_btldr_process+0x20>
   21a18:	4b88      	ldr	r3, [pc, #544]	@ (21c3c <video_btldr_process+0x230>)
   21a1a:	781b      	ldrb	r3, [r3, #0]
   21a1c:	b11b      	cbz	r3, 21a26 <video_btldr_process+0x1a>
   21a1e:	4b88      	ldr	r3, [pc, #544]	@ (21c40 <video_btldr_process+0x234>)
   21a20:	4888      	ldr	r0, [pc, #544]	@ (21c44 <video_btldr_process+0x238>)
   21a22:	69db      	ldr	r3, [r3, #28]
   21a24:	4798      	blx	r3
   21a26:	f241 0503 	movw	r5, #4099	@ 0x1003
   21a2a:	e060      	b.n	21aee <video_btldr_process+0xe2>
   21a2c:	68c7      	ldr	r7, [r0, #12]
   21a2e:	f8d0 a004 	ldr.w	sl, [r0, #4]
   21a32:	783b      	ldrb	r3, [r7, #0]
   21a34:	693e      	ldr	r6, [r7, #16]
   21a36:	eb07 1243 	add.w	r2, r7, r3, lsl #5
   21a3a:	4c83      	ldr	r4, [pc, #524]	@ (21c48 <video_btldr_process+0x23c>)
   21a3c:	eb07 1343 	add.w	r3, r7, r3, lsl #5
   21a40:	6a52      	ldr	r2, [r2, #36]	@ 0x24
   21a42:	46a1      	mov	r9, r4
   21a44:	6a99      	ldr	r1, [r3, #40]	@ 0x28
   21a46:	4416      	add	r6, r2
   21a48:	6b1b      	ldr	r3, [r3, #48]	@ 0x30
   21a4a:	eb06 0b01 	add.w	fp, r6, r1
   21a4e:	441e      	add	r6, r3
   21a50:	f004 fd14 	bl	2647c <hal_read_curtime_us>
   21a54:	f44f 737a 	mov.w	r3, #1000	@ 0x3e8
   21a58:	f04f 22e0 	mov.w	r2, #3758153728	@ 0xe000e000
   21a5c:	fbb0 f0f3 	udiv	r0, r0, r3
   21a60:	f8c4 0534 	str.w	r0, [r4, #1332]	@ 0x534
   21a64:	f8d2 3dfc 	ldr.w	r3, [r2, #3580]	@ 0xdfc
   21a68:	f043 7380 	orr.w	r3, r3, #16777216	@ 0x1000000
   21a6c:	f8c2 3dfc 	str.w	r3, [r2, #3580]	@ 0xdfc
   21a70:	2200      	movs	r2, #0
   21a72:	4b76      	ldr	r3, [pc, #472]	@ (21c4c <video_btldr_process+0x240>)
   21a74:	605a      	str	r2, [r3, #4]
   21a76:	681a      	ldr	r2, [r3, #0]
   21a78:	f042 0201 	orr.w	r2, r2, #1
   21a7c:	601a      	str	r2, [r3, #0]
   21a7e:	f00a fff7 	bl	2ca70 <hal_voe_fcs_check_OK>
   21a82:	4605      	mov	r5, r0
   21a84:	2800      	cmp	r0, #0
   21a86:	f000 80ac 	beq.w	21be2 <video_btldr_process+0x1d6>
   21a8a:	f8d8 0014 	ldr.w	r0, [r8, #20]
   21a8e:	f000 fa37 	bl	21f00 <user_boot_config_init>
   21a92:	f8d4 34f0 	ldr.w	r3, [r4, #1264]	@ 0x4f0
   21a96:	b173      	cbz	r3, 21ab6 <video_btldr_process+0xaa>
   21a98:	787a      	ldrb	r2, [r7, #1]
   21a9a:	4293      	cmp	r3, r2
   21a9c:	d20b      	bcs.n	21ab6 <video_btldr_process+0xaa>
   21a9e:	eb07 1243 	add.w	r2, r7, r3, lsl #5
   21aa2:	693e      	ldr	r6, [r7, #16]
   21aa4:	eb07 1343 	add.w	r3, r7, r3, lsl #5
   21aa8:	6a52      	ldr	r2, [r2, #36]	@ 0x24
   21aaa:	6a99      	ldr	r1, [r3, #40]	@ 0x28
   21aac:	4416      	add	r6, r2
   21aae:	6b1b      	ldr	r3, [r3, #48]	@ 0x30
   21ab0:	eb06 0b01 	add.w	fp, r6, r1
   21ab4:	441e      	add	r6, r3
   21ab6:	4a66      	ldr	r2, [pc, #408]	@ (21c50 <video_btldr_process+0x244>)
   21ab8:	4659      	mov	r1, fp
   21aba:	4650      	mov	r0, sl
   21abc:	2500      	movs	r5, #0
   21abe:	f00a fd7d 	bl	2c5bc <hal_voe_load_iq>
   21ac2:	4631      	mov	r1, r6
   21ac4:	4650      	mov	r0, sl
   21ac6:	f04f 36ff 	mov.w	r6, #4294967295	@ 0xffffffff
   21aca:	f8df a17c 	ldr.w	sl, [pc, #380]	@ 21c48 <video_btldr_process+0x23c>
   21ace:	4a60      	ldr	r2, [pc, #384]	@ (21c50 <video_btldr_process+0x244>)
   21ad0:	f00a fd10 	bl	2c4f4 <hal_voe_load_sensor>
   21ad4:	f8da 303c 	ldr.w	r3, [sl, #60]	@ 0x3c
   21ad8:	b1b3      	cbz	r3, 21b08 <video_btldr_process+0xfc>
   21ada:	4651      	mov	r1, sl
   21adc:	4628      	mov	r0, r5
   21ade:	f7ff fcc1 	bl	21464 <video_boot_open>
   21ae2:	b188      	cbz	r0, 21b08 <video_btldr_process+0xfc>
   21ae4:	4b55      	ldr	r3, [pc, #340]	@ (21c3c <video_btldr_process+0x230>)
   21ae6:	781b      	ldrb	r3, [r3, #0]
   21ae8:	b933      	cbnz	r3, 21af8 <video_btldr_process+0xec>
   21aea:	f04f 35ff 	mov.w	r5, #4294967295	@ 0xffffffff
   21aee:	4628      	mov	r0, r5
   21af0:	f20d 7d14 	addw	sp, sp, #1812	@ 0x714
   21af4:	e8bd 8ff0 	ldmia.w	sp!, {r4, r5, r6, r7, r8, r9, sl, fp, pc}
   21af8:	236c      	movs	r3, #108	@ 0x6c
   21afa:	435d      	muls	r5, r3
   21afc:	4b50      	ldr	r3, [pc, #320]	@ (21c40 <video_btldr_process+0x234>)
   21afe:	5961      	ldr	r1, [r4, r5]
   21b00:	69db      	ldr	r3, [r3, #28]
   21b02:	4854      	ldr	r0, [pc, #336]	@ (21c54 <video_btldr_process+0x248>)
   21b04:	4798      	blx	r3
   21b06:	e7f0      	b.n	21aea <video_btldr_process+0xde>
   21b08:	1c72      	adds	r2, r6, #1
   21b0a:	d104      	bne.n	21b16 <video_btldr_process+0x10a>
   21b0c:	f8da 303c 	ldr.w	r3, [sl, #60]	@ 0x3c
   21b10:	2b01      	cmp	r3, #1
   21b12:	bf08      	it	eq
   21b14:	462e      	moveq	r6, r5
   21b16:	3501      	adds	r5, #1
   21b18:	f10a 0a6c 	add.w	sl, sl, #108	@ 0x6c
   21b1c:	2d04      	cmp	r5, #4
   21b1e:	d1d9      	bne.n	21ad4 <video_btldr_process+0xc8>
   21b20:	f8d4 36e4 	ldr.w	r3, [r4, #1764]	@ 0x6e4
   21b24:	b163      	cbz	r3, 21b40 <video_btldr_process+0x134>
   21b26:	494c      	ldr	r1, [pc, #304]	@ (21c58 <video_btldr_process+0x24c>)
   21b28:	4628      	mov	r0, r5
   21b2a:	f7ff fc9b 	bl	21464 <video_boot_open>
   21b2e:	b138      	cbz	r0, 21b40 <video_btldr_process+0x134>
   21b30:	4b42      	ldr	r3, [pc, #264]	@ (21c3c <video_btldr_process+0x230>)
   21b32:	781b      	ldrb	r3, [r3, #0]
   21b34:	2b00      	cmp	r3, #0
   21b36:	d0d8      	beq.n	21aea <video_btldr_process+0xde>
   21b38:	4b41      	ldr	r3, [pc, #260]	@ (21c40 <video_btldr_process+0x234>)
   21b3a:	f8d4 16a8 	ldr.w	r1, [r4, #1704]	@ 0x6a8
   21b3e:	e7df      	b.n	21b00 <video_btldr_process+0xf4>
   21b40:	1c73      	adds	r3, r6, #1
   21b42:	d105      	bne.n	21b50 <video_btldr_process+0x144>
   21b44:	f8d4 36e4 	ldr.w	r3, [r4, #1764]	@ 0x6e4
   21b48:	2b01      	cmp	r3, #1
   21b4a:	bf08      	it	eq
   21b4c:	f8d4 66a8 	ldreq.w	r6, [r4, #1704]	@ 0x6a8
   21b50:	f3bf 8f4f 	dsb	sy
   21b54:	f8d8 5010 	ldr.w	r5, [r8, #16]
   21b58:	782a      	ldrb	r2, [r5, #0]
   21b5a:	2a03      	cmp	r2, #3
   21b5c:	d807      	bhi.n	21b6e <video_btldr_process+0x162>
   21b5e:	4b3f      	ldr	r3, [pc, #252]	@ (21c5c <video_btldr_process+0x250>)
   21b60:	eb03 0386 	add.w	r3, r3, r6, lsl #2
   21b64:	6858      	ldr	r0, [r3, #4]
   21b66:	f8c0 24f8 	str.w	r2, [r0, #1272]	@ 0x4f8
   21b6a:	f7ff f9ff 	bl	20f6c <dcache_clean_invalidate_by_addr.constprop.0>
   21b6e:	8aea      	ldrh	r2, [r5, #22]
   21b70:	7c2b      	ldrb	r3, [r5, #16]
   21b72:	2a01      	cmp	r2, #1
   21b74:	d14f      	bne.n	21c16 <video_btldr_process+0x20a>
   21b76:	2b03      	cmp	r3, #3
   21b78:	d913      	bls.n	21ba2 <video_btldr_process+0x196>
   21b7a:	4b38      	ldr	r3, [pc, #224]	@ (21c5c <video_btldr_process+0x250>)
   21b7c:	79a9      	ldrb	r1, [r5, #6]
   21b7e:	eb03 0686 	add.w	r6, r3, r6, lsl #2
   21b82:	792a      	ldrb	r2, [r5, #4]
   21b84:	79eb      	ldrb	r3, [r5, #7]
   21b86:	6870      	ldr	r0, [r6, #4]
   21b88:	f8c0 14f0 	str.w	r1, [r0, #1264]	@ 0x4f0
   21b8c:	f8c0 34ec 	str.w	r3, [r0, #1260]	@ 0x4ec
   21b90:	f8c0 24f4 	str.w	r2, [r0, #1268]	@ 0x4f4
   21b94:	f7ff f9ea 	bl	20f6c <dcache_clean_invalidate_by_addr.constprop.0>
   21b98:	f04f 4170 	mov.w	r1, #4026531840	@ 0xf0000000
   21b9c:	7968      	ldrb	r0, [r5, #5]
   21b9e:	f00b fa5f 	bl	2d060 <hal_pinmux_unregister>
   21ba2:	f240 720c 	movw	r2, #1804	@ 0x70c
   21ba6:	492e      	ldr	r1, [pc, #184]	@ (21c60 <video_btldr_process+0x254>)
   21ba8:	4668      	mov	r0, sp
   21baa:	f00b fa21 	bl	2cff0 <__wrap_memcpy>
   21bae:	e899 000f 	ldmia.w	r9, {r0, r1, r2, r3}
   21bb2:	f7ff fb1d 	bl	211f0 <video_boot_buf_calc>
   21bb6:	4601      	mov	r1, r0
   21bb8:	f7ff fa5e 	bl	21078 <video_boot_malloc>
   21bbc:	f8d4 2534 	ldr.w	r2, [r4, #1332]	@ 0x534
   21bc0:	e9c4 017c 	strd	r0, r1, [r4, #496]	@ 0x1f0
   21bc4:	b13a      	cbz	r2, 21bd6 <video_btldr_process+0x1ca>
   21bc6:	4b21      	ldr	r3, [pc, #132]	@ (21c4c <video_btldr_process+0x240>)
   21bc8:	4d26      	ldr	r5, [pc, #152]	@ (21c64 <video_btldr_process+0x258>)
   21bca:	685b      	ldr	r3, [r3, #4]
   21bcc:	fbb3 f3f5 	udiv	r3, r3, r5
   21bd0:	4413      	add	r3, r2
   21bd2:	f8c4 3538 	str.w	r3, [r4, #1336]	@ 0x538
   21bd6:	f00a fa8b 	bl	2c0f0 <hal_video_init>
   21bda:	2301      	movs	r3, #1
   21bdc:	4605      	mov	r5, r0
   21bde:	f8c4 33b8 	str.w	r3, [r4, #952]	@ 0x3b8
   21be2:	f8d8 3008 	ldr.w	r3, [r8, #8]
   21be6:	f44f 72d8 	mov.w	r2, #432	@ 0x1b0
   21bea:	4639      	mov	r1, r7
   21bec:	481e      	ldr	r0, [pc, #120]	@ (21c68 <video_btldr_process+0x25c>)
   21bee:	f8c4 33c0 	str.w	r3, [r4, #960]	@ 0x3c0
   21bf2:	f00b f9fd 	bl	2cff0 <__wrap_memcpy>
   21bf6:	4b1d      	ldr	r3, [pc, #116]	@ (21c6c <video_btldr_process+0x260>)
   21bf8:	681b      	ldr	r3, [r3, #0]
   21bfa:	2b01      	cmp	r3, #1
   21bfc:	d104      	bne.n	21c08 <video_btldr_process+0x1fc>
   21bfe:	f8d4 33b8 	ldr.w	r3, [r4, #952]	@ 0x3b8
   21c02:	b90b      	cbnz	r3, 21c08 <video_btldr_process+0x1fc>
   21c04:	f884 3204 	strb.w	r3, [r4, #516]	@ 0x204
   21c08:	f240 721c 	movw	r2, #1820	@ 0x71c
   21c0c:	490e      	ldr	r1, [pc, #56]	@ (21c48 <video_btldr_process+0x23c>)
   21c0e:	4818      	ldr	r0, [pc, #96]	@ (21c70 <video_btldr_process+0x264>)
   21c10:	f00b f9ee 	bl	2cff0 <__wrap_memcpy>
   21c14:	e76b      	b.n	21aee <video_btldr_process+0xe2>
   21c16:	2b02      	cmp	r3, #2
   21c18:	d9c3      	bls.n	21ba2 <video_btldr_process+0x196>
   21c1a:	4b10      	ldr	r3, [pc, #64]	@ (21c5c <video_btldr_process+0x250>)
   21c1c:	79a9      	ldrb	r1, [r5, #6]
   21c1e:	eb03 0686 	add.w	r6, r3, r6, lsl #2
   21c22:	792a      	ldrb	r2, [r5, #4]
   21c24:	796b      	ldrb	r3, [r5, #5]
   21c26:	6870      	ldr	r0, [r6, #4]
   21c28:	f8c0 34ec 	str.w	r3, [r0, #1260]	@ 0x4ec
   21c2c:	f8c0 14f0 	str.w	r1, [r0, #1264]	@ 0x4f0
   21c30:	f8c0 24f4 	str.w	r2, [r0, #1268]	@ 0x4f4
   21c34:	f7ff f99a 	bl	20f6c <dcache_clean_invalidate_by_addr.constprop.0>
   21c38:	e7b3      	b.n	21ba2 <video_btldr_process+0x196>
   21c3a:	bf00      	nop
   21c3c:	0001a2a0 	.word	0x0001a2a0
   21c40:	100bc800 	.word	0x100bc800
   21c44:	2010148e 	.word	0x2010148e
   21c48:	00020308 	.word	0x00020308
   21c4c:	e0001000 	.word	0xe0001000
   21c50:	70000000 	.word	0x70000000
   21c54:	201014a8 	.word	0x201014a8
   21c58:	000209b0 	.word	0x000209b0
   21c5c:	00020e80 	.word	0x00020e80
   21c60:	00020318 	.word	0x00020318
   21c64:	0007a120 	.word	0x0007a120
   21c68:	0002050c 	.word	0x0002050c
   21c6c:	00018300 	.word	0x00018300
   21c70:	0001a4a9 	.word	0x0001a4a9

00021c74 <video_btldr_fcs_terminated>:
   21c74:	e92d 43f0 	stmdb	sp!, {r4, r5, r6, r7, r8, r9, lr}
   21c78:	b0d1      	sub	sp, #324	@ 0x144
   21c7a:	6904      	ldr	r4, [r0, #16]
   21c7c:	f000 f93e 	bl	21efc <user_disable_fcs>
   21c80:	4b39      	ldr	r3, [pc, #228]	@ (21d68 <video_btldr_fcs_terminated+0xf4>)
   21c82:	6018      	str	r0, [r3, #0]
   21c84:	2800      	cmp	r0, #0
   21c86:	d03f      	beq.n	21d08 <video_btldr_fcs_terminated+0x94>
   21c88:	7ca3      	ldrb	r3, [r4, #18]
   21c8a:	a810      	add	r0, sp, #64	@ 0x40
   21c8c:	931a      	str	r3, [sp, #104]	@ 0x68
   21c8e:	7ce3      	ldrb	r3, [r4, #19]
   21c90:	931b      	str	r3, [sp, #108]	@ 0x6c
   21c92:	7823      	ldrb	r3, [r4, #0]
   21c94:	f88d 3048 	strb.w	r3, [sp, #72]	@ 0x48
   21c98:	f00a fb63 	bl	2c362 <hal_i2c_pin_unregister_simple>
   21c9c:	4601      	mov	r1, r0
   21c9e:	b130      	cbz	r0, 21cae <video_btldr_fcs_terminated+0x3a>
   21ca0:	4b32      	ldr	r3, [pc, #200]	@ (21d6c <video_btldr_fcs_terminated+0xf8>)
   21ca2:	781b      	ldrb	r3, [r3, #0]
   21ca4:	b11b      	cbz	r3, 21cae <video_btldr_fcs_terminated+0x3a>
   21ca6:	4b32      	ldr	r3, [pc, #200]	@ (21d70 <video_btldr_fcs_terminated+0xfc>)
   21ca8:	4832      	ldr	r0, [pc, #200]	@ (21d74 <video_btldr_fcs_terminated+0x100>)
   21caa:	69db      	ldr	r3, [r3, #28]
   21cac:	4798      	blx	r3
   21cae:	7c23      	ldrb	r3, [r4, #16]
   21cb0:	b323      	cbz	r3, 21cfc <video_btldr_fcs_terminated+0x88>
   21cb2:	f04f 4170 	mov.w	r1, #4026531840	@ 0xf0000000
   21cb6:	7920      	ldrb	r0, [r4, #4]
   21cb8:	f00b f9d2 	bl	2d060 <hal_pinmux_unregister>
   21cbc:	4601      	mov	r1, r0
   21cbe:	b338      	cbz	r0, 21d10 <video_btldr_fcs_terminated+0x9c>
   21cc0:	4b2a      	ldr	r3, [pc, #168]	@ (21d6c <video_btldr_fcs_terminated+0xf8>)
   21cc2:	781b      	ldrb	r3, [r3, #0]
   21cc4:	b11b      	cbz	r3, 21cce <video_btldr_fcs_terminated+0x5a>
   21cc6:	4b2a      	ldr	r3, [pc, #168]	@ (21d70 <video_btldr_fcs_terminated+0xfc>)
   21cc8:	482b      	ldr	r0, [pc, #172]	@ (21d78 <video_btldr_fcs_terminated+0x104>)
   21cca:	69db      	ldr	r3, [r3, #28]
   21ccc:	4798      	blx	r3
   21cce:	1d66      	adds	r6, r4, #5
   21cd0:	2501      	movs	r5, #1
   21cd2:	4f26      	ldr	r7, [pc, #152]	@ (21d6c <video_btldr_fcs_terminated+0xf8>)
   21cd4:	f8df 8098 	ldr.w	r8, [pc, #152]	@ 21d70 <video_btldr_fcs_terminated+0xfc>
   21cd8:	f8df 90ac 	ldr.w	r9, [pc, #172]	@ 21d88 <video_btldr_fcs_terminated+0x114>
   21cdc:	7c23      	ldrb	r3, [r4, #16]
   21cde:	42ab      	cmp	r3, r5
   21ce0:	dc31      	bgt.n	21d46 <video_btldr_fcs_terminated+0xd2>
   21ce2:	210c      	movs	r1, #12
   21ce4:	7c60      	ldrb	r0, [r4, #17]
   21ce6:	f00b f9bb 	bl	2d060 <hal_pinmux_unregister>
   21cea:	4601      	mov	r1, r0
   21cec:	b130      	cbz	r0, 21cfc <video_btldr_fcs_terminated+0x88>
   21cee:	4b1f      	ldr	r3, [pc, #124]	@ (21d6c <video_btldr_fcs_terminated+0xf8>)
   21cf0:	781b      	ldrb	r3, [r3, #0]
   21cf2:	b11b      	cbz	r3, 21cfc <video_btldr_fcs_terminated+0x88>
   21cf4:	4b1e      	ldr	r3, [pc, #120]	@ (21d70 <video_btldr_fcs_terminated+0xfc>)
   21cf6:	4821      	ldr	r0, [pc, #132]	@ (21d7c <video_btldr_fcs_terminated+0x108>)
   21cf8:	69db      	ldr	r3, [r3, #28]
   21cfa:	4798      	blx	r3
   21cfc:	2300      	movs	r3, #0
   21cfe:	f242 0081 	movw	r0, #8321	@ 0x2081
   21d02:	7563      	strb	r3, [r4, #21]
   21d04:	f00b ffa6 	bl	2dc54 <hal_voe_set_kmfw_base_addr>
   21d08:	2000      	movs	r0, #0
   21d0a:	b051      	add	sp, #324	@ 0x144
   21d0c:	e8bd 83f0 	ldmia.w	sp!, {r4, r5, r6, r7, r8, r9, pc}
   21d10:	7921      	ldrb	r1, [r4, #4]
   21d12:	4668      	mov	r0, sp
   21d14:	f003 f86e 	bl	24df4 <hal_gpio_init>
   21d18:	4605      	mov	r5, r0
   21d1a:	b138      	cbz	r0, 21d2c <video_btldr_fcs_terminated+0xb8>
   21d1c:	4b13      	ldr	r3, [pc, #76]	@ (21d6c <video_btldr_fcs_terminated+0xf8>)
   21d1e:	781b      	ldrb	r3, [r3, #0]
   21d20:	2b00      	cmp	r3, #0
   21d22:	d0d4      	beq.n	21cce <video_btldr_fcs_terminated+0x5a>
   21d24:	4601      	mov	r1, r0
   21d26:	4b12      	ldr	r3, [pc, #72]	@ (21d70 <video_btldr_fcs_terminated+0xfc>)
   21d28:	4815      	ldr	r0, [pc, #84]	@ (21d80 <video_btldr_fcs_terminated+0x10c>)
   21d2a:	e7ce      	b.n	21cca <video_btldr_fcs_terminated+0x56>
   21d2c:	4e15      	ldr	r6, [pc, #84]	@ (21d84 <video_btldr_fcs_terminated+0x110>)
   21d2e:	4668      	mov	r0, sp
   21d30:	2101      	movs	r1, #1
   21d32:	6cf3      	ldr	r3, [r6, #76]	@ 0x4c
   21d34:	4798      	blx	r3
   21d36:	4668      	mov	r0, sp
   21d38:	6d73      	ldr	r3, [r6, #84]	@ 0x54
   21d3a:	4629      	mov	r1, r5
   21d3c:	4798      	blx	r3
   21d3e:	4668      	mov	r0, sp
   21d40:	f003 f890 	bl	24e64 <hal_gpio_deinit>
   21d44:	e7c3      	b.n	21cce <video_btldr_fcs_terminated+0x5a>
   21d46:	f04f 4170 	mov.w	r1, #4026531840	@ 0xf0000000
   21d4a:	f816 0b01 	ldrb.w	r0, [r6], #1
   21d4e:	f00b f987 	bl	2d060 <hal_pinmux_unregister>
   21d52:	4602      	mov	r2, r0
   21d54:	b130      	cbz	r0, 21d64 <video_btldr_fcs_terminated+0xf0>
   21d56:	783b      	ldrb	r3, [r7, #0]
   21d58:	b123      	cbz	r3, 21d64 <video_btldr_fcs_terminated+0xf0>
   21d5a:	f8d8 301c 	ldr.w	r3, [r8, #28]
   21d5e:	4629      	mov	r1, r5
   21d60:	4648      	mov	r0, r9
   21d62:	4798      	blx	r3
   21d64:	3501      	adds	r5, #1
   21d66:	e7b9      	b.n	21cdc <video_btldr_fcs_terminated+0x68>
   21d68:	00018300 	.word	0x00018300
   21d6c:	0001a2a0 	.word	0x0001a2a0
   21d70:	100bc800 	.word	0x100bc800
   21d74:	201014c0 	.word	0x201014c0
   21d78:	201014fa 	.word	0x201014fa
   21d7c:	201015ab 	.word	0x201015ab
   21d80:	20101539 	.word	0x20101539
   21d84:	10000680 	.word	0x10000680
   21d88:	20101570 	.word	0x20101570

00021d8c <user_boot_fw_selection>:
   21d8c:	2000      	movs	r0, #0
   21d8e:	4770      	bx	lr

00021d90 <spic_user_select>:
   21d90:	2304      	movs	r3, #4
   21d92:	7003      	strb	r3, [r0, #0]
   21d94:	2300      	movs	r3, #0
   21d96:	7043      	strb	r3, [r0, #1]
   21d98:	4770      	bx	lr

00021d9a <bootloader_enter>:
   21d9a:	4770      	bx	lr

00021d9c <boot_get_remap_table_index>:
   21d9c:	b570      	push	{r4, r5, r6, lr}
   21d9e:	4603      	mov	r3, r0
   21da0:	2408      	movs	r4, #8
   21da2:	7a1d      	ldrb	r5, [r3, #8]
   21da4:	2d42      	cmp	r5, #66	@ 0x42
   21da6:	d116      	bne.n	21dd6 <boot_get_remap_table_index+0x3a>
   21da8:	7a5d      	ldrb	r5, [r3, #9]
   21daa:	2d42      	cmp	r5, #66	@ 0x42
   21dac:	d113      	bne.n	21dd6 <boot_get_remap_table_index+0x3a>
   21dae:	7b9d      	ldrb	r5, [r3, #14]
   21db0:	2d62      	cmp	r5, #98	@ 0x62
   21db2:	d002      	beq.n	21dba <boot_get_remap_table_index+0x1e>
   21db4:	7bdd      	ldrb	r5, [r3, #15]
   21db6:	2d62      	cmp	r5, #98	@ 0x62
   21db8:	d112      	bne.n	21de0 <boot_get_remap_table_index+0x44>
   21dba:	7ade      	ldrb	r6, [r3, #11]
   21dbc:	7a9d      	ldrb	r5, [r3, #10]
   21dbe:	ea45 2506 	orr.w	r5, r5, r6, lsl #8
   21dc2:	428d      	cmp	r5, r1
   21dc4:	d107      	bne.n	21dd6 <boot_get_remap_table_index+0x3a>
   21dc6:	4404      	add	r4, r0
   21dc8:	2000      	movs	r0, #0
   21dca:	7961      	ldrb	r1, [r4, #5]
   21dcc:	7923      	ldrb	r3, [r4, #4]
   21dce:	ea43 2301 	orr.w	r3, r3, r1, lsl #8
   21dd2:	6013      	str	r3, [r2, #0]
   21dd4:	bd70      	pop	{r4, r5, r6, pc}
   21dd6:	3408      	adds	r4, #8
   21dd8:	3308      	adds	r3, #8
   21dda:	f5b4 6f00 	cmp.w	r4, #2048	@ 0x800
   21dde:	d1e0      	bne.n	21da2 <boot_get_remap_table_index+0x6>
   21de0:	f04f 30ff 	mov.w	r0, #4294967295	@ 0xffffffff
   21de4:	e7f6      	b.n	21dd4 <boot_get_remap_table_index+0x38>
	...

00021de8 <boot_get_fcs_remap_block>:
   21de8:	e92d 43f7 	stmdb	sp!, {r0, r1, r2, r4, r5, r6, r7, r8, r9, lr}
   21dec:	2300      	movs	r3, #0
   21dee:	460f      	mov	r7, r1
   21df0:	0c46      	lsrs	r6, r0, #17
   21df2:	f44f 457f 	mov.w	r5, #65280	@ 0xff00
   21df6:	f04f 34ff 	mov.w	r4, #4294967295	@ 0xffffffff
   21dfa:	f8df 8044 	ldr.w	r8, [pc, #68]	@ 21e40 <boot_get_fcs_remap_block+0x58>
   21dfe:	f8df 9044 	ldr.w	r9, [pc, #68]	@ 21e44 <boot_get_fcs_remap_block+0x5c>
   21e02:	9301      	str	r3, [sp, #4]
   21e04:	462b      	mov	r3, r5
   21e06:	f44f 6202 	mov.w	r2, #2080	@ 0x820
   21e0a:	490d      	ldr	r1, [pc, #52]	@ (21e40 <boot_get_fcs_remap_block+0x58>)
   21e0c:	4648      	mov	r0, r9
   21e0e:	f003 f927 	bl	25060 <hal_snand_page_read>
   21e12:	f898 3800 	ldrb.w	r3, [r8, #2048]	@ 0x800
   21e16:	2bff      	cmp	r3, #255	@ 0xff
   21e18:	d10d      	bne.n	21e36 <boot_get_fcs_remap_block+0x4e>
   21e1a:	aa01      	add	r2, sp, #4
   21e1c:	4631      	mov	r1, r6
   21e1e:	4640      	mov	r0, r8
   21e20:	f7ff ffbc 	bl	21d9c <boot_get_remap_table_index>
   21e24:	1e04      	subs	r4, r0, #0
   21e26:	db06      	blt.n	21e36 <boot_get_fcs_remap_block+0x4e>
   21e28:	9b01      	ldr	r3, [sp, #4]
   21e2a:	2400      	movs	r4, #0
   21e2c:	603b      	str	r3, [r7, #0]
   21e2e:	4620      	mov	r0, r4
   21e30:	b003      	add	sp, #12
   21e32:	e8bd 83f0 	ldmia.w	sp!, {r4, r5, r6, r7, r8, r9, pc}
   21e36:	3540      	adds	r5, #64	@ 0x40
   21e38:	f5b5 3f80 	cmp.w	r5, #65536	@ 0x10000
   21e3c:	d1e2      	bne.n	21e04 <boot_get_fcs_remap_block+0x1c>
   21e3e:	e7f6      	b.n	21e2e <boot_get_fcs_remap_block+0x46>
   21e40:	00018320 	.word	0x00018320
   21e44:	0001cb54 	.word	0x0001cb54

00021e48 <boot_read_flash_data>:
   21e48:	f5b2 6f00 	cmp.w	r2, #2048	@ 0x800
   21e4c:	b5f7      	push	{r0, r1, r2, r4, r5, r6, r7, lr}
   21e4e:	4606      	mov	r6, r0
   21e50:	460d      	mov	r5, r1
   21e52:	4614      	mov	r4, r2
   21e54:	dc41      	bgt.n	21eda <boot_read_flash_data+0x92>
   21e56:	f00b fb75 	bl	2d544 <hal_sys_get_boot_select>
   21e5a:	2801      	cmp	r0, #1
   21e5c:	d12b      	bne.n	21eb6 <boot_read_flash_data+0x6e>
   21e5e:	4f20      	ldr	r7, [pc, #128]	@ (21ee0 <boot_read_flash_data+0x98>)
   21e60:	0af3      	lsrs	r3, r6, #11
   21e62:	f44f 6202 	mov.w	r2, #2080	@ 0x820
   21e66:	481f      	ldr	r0, [pc, #124]	@ (21ee4 <boot_read_flash_data+0x9c>)
   21e68:	4639      	mov	r1, r7
   21e6a:	f003 f8f9 	bl	25060 <hal_snand_page_read>
   21e6e:	f897 3800 	ldrb.w	r3, [r7, #2048]	@ 0x800
   21e72:	2bff      	cmp	r3, #255	@ 0xff
   21e74:	d00f      	beq.n	21e96 <boot_read_flash_data+0x4e>
   21e76:	2300      	movs	r3, #0
   21e78:	a901      	add	r1, sp, #4
   21e7a:	4630      	mov	r0, r6
   21e7c:	9301      	str	r3, [sp, #4]
   21e7e:	f7ff ffb3 	bl	21de8 <boot_get_fcs_remap_block>
   21e82:	2800      	cmp	r0, #0
   21e84:	db0d      	blt.n	21ea2 <boot_read_flash_data+0x5a>
   21e86:	9b01      	ldr	r3, [sp, #4]
   21e88:	f44f 6202 	mov.w	r2, #2080	@ 0x820
   21e8c:	4639      	mov	r1, r7
   21e8e:	4815      	ldr	r0, [pc, #84]	@ (21ee4 <boot_read_flash_data+0x9c>)
   21e90:	019b      	lsls	r3, r3, #6
   21e92:	f003 f8e5 	bl	25060 <hal_snand_page_read>
   21e96:	4622      	mov	r2, r4
   21e98:	4639      	mov	r1, r7
   21e9a:	4628      	mov	r0, r5
   21e9c:	f00b f8a8 	bl	2cff0 <__wrap_memcpy>
   21ea0:	e006      	b.n	21eb0 <boot_read_flash_data+0x68>
   21ea2:	4b11      	ldr	r3, [pc, #68]	@ (21ee8 <boot_read_flash_data+0xa0>)
   21ea4:	781b      	ldrb	r3, [r3, #0]
   21ea6:	b11b      	cbz	r3, 21eb0 <boot_read_flash_data+0x68>
   21ea8:	4b10      	ldr	r3, [pc, #64]	@ (21eec <boot_read_flash_data+0xa4>)
   21eaa:	4811      	ldr	r0, [pc, #68]	@ (21ef0 <boot_read_flash_data+0xa8>)
   21eac:	69db      	ldr	r3, [r3, #28]
   21eae:	4798      	blx	r3
   21eb0:	2000      	movs	r0, #0
   21eb2:	b003      	add	sp, #12
   21eb4:	bdf0      	pop	{r4, r5, r6, r7, pc}
   21eb6:	f106 6700 	add.w	r7, r6, #134217728	@ 0x8000000
   21eba:	4b0e      	ldr	r3, [pc, #56]	@ (21ef4 <boot_read_flash_data+0xac>)
   21ebc:	4621      	mov	r1, r4
   21ebe:	4638      	mov	r0, r7
   21ec0:	6a1b      	ldr	r3, [r3, #32]
   21ec2:	4798      	blx	r3
   21ec4:	480c      	ldr	r0, [pc, #48]	@ (21ef8 <boot_read_flash_data+0xb0>)
   21ec6:	f890 30e0 	ldrb.w	r3, [r0, #224]	@ 0xe0
   21eca:	2b18      	cmp	r3, #24
   21ecc:	d8e3      	bhi.n	21e96 <boot_read_flash_data+0x4e>
   21ece:	462b      	mov	r3, r5
   21ed0:	4632      	mov	r2, r6
   21ed2:	4621      	mov	r1, r4
   21ed4:	f002 fe92 	bl	24bfc <hal_flash_stream_read>
   21ed8:	e7ea      	b.n	21eb0 <boot_read_flash_data+0x68>
   21eda:	f04f 30ff 	mov.w	r0, #4294967295	@ 0xffffffff
   21ede:	e7e8      	b.n	21eb2 <boot_read_flash_data+0x6a>
   21ee0:	00018320 	.word	0x00018320
   21ee4:	0001cb54 	.word	0x0001cb54
   21ee8:	0001a2a0 	.word	0x0001a2a0
   21eec:	100bc800 	.word	0x100bc800
   21ef0:	20101605 	.word	0x20101605
   21ef4:	10000a60 	.word	0x10000a60
   21ef8:	20000480 	.word	0x20000480

00021efc <user_disable_fcs>:
   21efc:	2001      	movs	r0, #1
   21efe:	4770      	bx	lr

00021f00 <user_boot_config_init>:
   21f00:	b5f0      	push	{r4, r5, r6, r7, lr}
   21f02:	f6ad 0d24 	subw	sp, sp, #2084	@ 0x824
   21f06:	f44f 6200 	mov.w	r2, #2048	@ 0x800
   21f0a:	2100      	movs	r1, #0
   21f0c:	f10d 0427 	add.w	r4, sp, #39	@ 0x27
   21f10:	f024 041f 	bic.w	r4, r4, #31
   21f14:	4620      	mov	r0, r4
   21f16:	f00b f873 	bl	2d000 <__wrap_memset>
   21f1a:	f00b fb13 	bl	2d544 <hal_sys_get_boot_select>
   21f1e:	2801      	cmp	r0, #1
   21f20:	f44f 6200 	mov.w	r2, #2048	@ 0x800
   21f24:	4836      	ldr	r0, [pc, #216]	@ (22000 <user_boot_config_init+0x100>)
   21f26:	4621      	mov	r1, r4
   21f28:	bf08      	it	eq
   21f2a:	f04f 60e1 	moveq.w	r0, #117964800	@ 0x7080000
   21f2e:	f7ff ff8b 	bl	21e48 <boot_read_flash_data>
   21f32:	2800      	cmp	r0, #0
   21f34:	db49      	blt.n	21fca <user_boot_config_init+0xca>
   21f36:	4933      	ldr	r1, [pc, #204]	@ (22004 <user_boot_config_init+0x104>)
   21f38:	4d33      	ldr	r5, [pc, #204]	@ (22008 <user_boot_config_init+0x108>)
   21f3a:	690b      	ldr	r3, [r1, #16]
   21f3c:	42ab      	cmp	r3, r5
   21f3e:	d116      	bne.n	21f6e <user_boot_config_init+0x6e>
   21f40:	6948      	ldr	r0, [r1, #20]
   21f42:	f240 731c 	movw	r3, #1820	@ 0x71c
   21f46:	4298      	cmp	r0, r3
   21f48:	d111      	bne.n	21f6e <user_boot_config_init+0x6e>
   21f4a:	2300      	movs	r3, #0
   21f4c:	698f      	ldr	r7, [r1, #24]
   21f4e:	461a      	mov	r2, r3
   21f50:	5dde      	ldrb	r6, [r3, r7]
   21f52:	3301      	adds	r3, #1
   21f54:	4283      	cmp	r3, r0
   21f56:	4432      	add	r2, r6
   21f58:	d1fa      	bne.n	21f50 <user_boot_config_init+0x50>
   21f5a:	69c9      	ldr	r1, [r1, #28]
   21f5c:	4291      	cmp	r1, r2
   21f5e:	d034      	beq.n	21fca <user_boot_config_init+0xca>
   21f60:	4b2a      	ldr	r3, [pc, #168]	@ (2200c <user_boot_config_init+0x10c>)
   21f62:	781b      	ldrb	r3, [r3, #0]
   21f64:	b11b      	cbz	r3, 21f6e <user_boot_config_init+0x6e>
   21f66:	4b2a      	ldr	r3, [pc, #168]	@ (22010 <user_boot_config_init+0x110>)
   21f68:	482a      	ldr	r0, [pc, #168]	@ (22014 <user_boot_config_init+0x114>)
   21f6a:	69db      	ldr	r3, [r3, #28]
   21f6c:	4798      	blx	r3
   21f6e:	6823      	ldr	r3, [r4, #0]
   21f70:	42ab      	cmp	r3, r5
   21f72:	d136      	bne.n	21fe2 <user_boot_config_init+0xe2>
   21f74:	2300      	movs	r3, #0
   21f76:	6860      	ldr	r0, [r4, #4]
   21f78:	f104 0108 	add.w	r1, r4, #8
   21f7c:	f240 751c 	movw	r5, #1820	@ 0x71c
   21f80:	461a      	mov	r2, r3
   21f82:	3301      	adds	r3, #1
   21f84:	f811 6b01 	ldrb.w	r6, [r1], #1
   21f88:	42ab      	cmp	r3, r5
   21f8a:	4432      	add	r2, r6
   21f8c:	d1f9      	bne.n	21f82 <user_boot_config_init+0x82>
   21f8e:	4290      	cmp	r0, r2
   21f90:	d11e      	bne.n	21fd0 <user_boot_config_init+0xd0>
   21f92:	4b21      	ldr	r3, [pc, #132]	@ (22018 <user_boot_config_init+0x118>)
   21f94:	f8d4 21d8 	ldr.w	r2, [r4, #472]	@ 0x1d8
   21f98:	f8d3 11d0 	ldr.w	r1, [r3, #464]	@ 0x1d0
   21f9c:	4291      	cmp	r1, r2
   21f9e:	d105      	bne.n	21fac <user_boot_config_init+0xac>
   21fa0:	f8d3 21d4 	ldr.w	r2, [r3, #468]	@ 0x1d4
   21fa4:	f8d4 31dc 	ldr.w	r3, [r4, #476]	@ 0x1dc
   21fa8:	429a      	cmp	r2, r3
   21faa:	d00e      	beq.n	21fca <user_boot_config_init+0xca>
   21fac:	f8d4 33cc 	ldr.w	r3, [r4, #972]	@ 0x3cc
   21fb0:	b15b      	cbz	r3, 21fca <user_boot_config_init+0xca>
   21fb2:	f8d4 33d8 	ldr.w	r3, [r4, #984]	@ 0x3d8
   21fb6:	b143      	cbz	r3, 21fca <user_boot_config_init+0xca>
   21fb8:	f504 7473 	add.w	r4, r4, #972	@ 0x3cc
   21fbc:	4d17      	ldr	r5, [pc, #92]	@ (2201c <user_boot_config_init+0x11c>)
   21fbe:	cc0f      	ldmia	r4!, {r0, r1, r2, r3}
   21fc0:	c50f      	stmia	r5!, {r0, r1, r2, r3}
   21fc2:	e894 0003 	ldmia.w	r4, {r0, r1}
   21fc6:	e885 0003 	stmia.w	r5, {r0, r1}
   21fca:	f60d 0d24 	addw	sp, sp, #2084	@ 0x824
   21fce:	bdf0      	pop	{r4, r5, r6, r7, pc}
   21fd0:	4b0e      	ldr	r3, [pc, #56]	@ (2200c <user_boot_config_init+0x10c>)
   21fd2:	781b      	ldrb	r3, [r3, #0]
   21fd4:	2b00      	cmp	r3, #0
   21fd6:	d0f8      	beq.n	21fca <user_boot_config_init+0xca>
   21fd8:	4b0d      	ldr	r3, [pc, #52]	@ (22010 <user_boot_config_init+0x110>)
   21fda:	4811      	ldr	r0, [pc, #68]	@ (22020 <user_boot_config_init+0x120>)
   21fdc:	69db      	ldr	r3, [r3, #28]
   21fde:	4798      	blx	r3
   21fe0:	e7f3      	b.n	21fca <user_boot_config_init+0xca>
   21fe2:	4b0a      	ldr	r3, [pc, #40]	@ (2200c <user_boot_config_init+0x10c>)
   21fe4:	781b      	ldrb	r3, [r3, #0]
   21fe6:	2b00      	cmp	r3, #0
   21fe8:	d0ef      	beq.n	21fca <user_boot_config_init+0xca>
   21fea:	78a3      	ldrb	r3, [r4, #2]
   21fec:	7862      	ldrb	r2, [r4, #1]
   21fee:	7821      	ldrb	r1, [r4, #0]
   21ff0:	78e0      	ldrb	r0, [r4, #3]
   21ff2:	4c07      	ldr	r4, [pc, #28]	@ (22010 <user_boot_config_init+0x110>)
   21ff4:	9000      	str	r0, [sp, #0]
   21ff6:	69e4      	ldr	r4, [r4, #28]
   21ff8:	480a      	ldr	r0, [pc, #40]	@ (22024 <user_boot_config_init+0x124>)
   21ffa:	47a0      	blx	r4
   21ffc:	e7e5      	b.n	21fca <user_boot_config_init+0xca>
   21ffe:	bf00      	nop
   22000:	00f0d000 	.word	0x00f0d000
   22004:	20120000 	.word	0x20120000
   22008:	44534346 	.word	0x44534346
   2200c:	0001a2a0 	.word	0x0001a2a0
   22010:	100bc800 	.word	0x100bc800
   22014:	20101624 	.word	0x20101624
   22018:	00020308 	.word	0x00020308
   2201c:	000206cc 	.word	0x000206cc
   22020:	2010163b 	.word	0x2010163b
   22024:	2010164c 	.word	0x2010164c

00022028 <check_addr_region>:
   22028:	f1b0 6f00 	cmp.w	r0, #134217728	@ 0x8000000
   2202c:	d30b      	bcc.n	22046 <check_addr_region+0x1e>
   2202e:	ea40 0301 	orr.w	r3, r0, r1
   22032:	f3c3 030b 	ubfx	r3, r3, #0, #12
   22036:	b933      	cbnz	r3, 22046 <check_addr_region+0x1e>
   22038:	4408      	add	r0, r1
   2203a:	f1b0 5f80 	cmp.w	r0, #268435456	@ 0x10000000
   2203e:	bf94      	ite	ls
   22040:	2000      	movls	r0, #0
   22042:	2001      	movhi	r0, #1
   22044:	4770      	bx	lr
   22046:	2001      	movs	r0, #1
   22048:	4770      	bx	lr
	...

0002204c <hal_flash_sec_get_status>:
   2204c:	b508      	push	{r3, lr}
   2204e:	4b02      	ldr	r3, [pc, #8]	@ (22058 <hal_flash_sec_get_status+0xc>)
   22050:	681b      	ldr	r3, [r3, #0]
   22052:	4798      	blx	r3
   22054:	bd08      	pop	{r3, pc}
   22056:	bf00      	nop
   22058:	10000ca0 	.word	0x10000ca0

0002205c <check_rom_error>:
   2205c:	b510      	push	{r4, lr}
   2205e:	4c0d      	ldr	r4, [pc, #52]	@ (22094 <check_rom_error+0x38>)
   22060:	4620      	mov	r0, r4
   22062:	f7ff fff3 	bl	2204c <hal_flash_sec_get_status>
   22066:	79a3      	ldrb	r3, [r4, #6]
   22068:	2b01      	cmp	r3, #1
   2206a:	d011      	beq.n	22090 <check_rom_error+0x34>
   2206c:	79e3      	ldrb	r3, [r4, #7]
   2206e:	2b01      	cmp	r3, #1
   22070:	d00e      	beq.n	22090 <check_rom_error+0x34>
   22072:	7923      	ldrb	r3, [r4, #4]
   22074:	2b01      	cmp	r3, #1
   22076:	d00b      	beq.n	22090 <check_rom_error+0x34>
   22078:	78a3      	ldrb	r3, [r4, #2]
   2207a:	2b01      	cmp	r3, #1
   2207c:	d008      	beq.n	22090 <check_rom_error+0x34>
   2207e:	78e3      	ldrb	r3, [r4, #3]
   22080:	2b01      	cmp	r3, #1
   22082:	d005      	beq.n	22090 <check_rom_error+0x34>
   22084:	7963      	ldrb	r3, [r4, #5]
   22086:	2b01      	cmp	r3, #1
   22088:	bf0c      	ite	eq
   2208a:	20ee      	moveq	r0, #238	@ 0xee
   2208c:	2000      	movne	r0, #0
   2208e:	bd10      	pop	{r4, pc}
   22090:	20ee      	movs	r0, #238	@ 0xee
   22092:	e7fc      	b.n	2208e <check_rom_error+0x32>
   22094:	00018b60 	.word	0x00018b60

00022098 <hal_flash_sec_aes_disable>:
   22098:	b508      	push	{r3, lr}
   2209a:	4b02      	ldr	r3, [pc, #8]	@ (220a4 <hal_flash_sec_aes_disable+0xc>)
   2209c:	691b      	ldr	r3, [r3, #16]
   2209e:	4798      	blx	r3
   220a0:	bd08      	pop	{r3, pc}
   220a2:	bf00      	nop
   220a4:	10000ca0 	.word	0x10000ca0

000220a8 <hal_flash_sec_enable_rmp_region>:
   220a8:	b513      	push	{r0, r1, r4, lr}
   220aa:	9300      	str	r3, [sp, #0]
   220ac:	4b04      	ldr	r3, [pc, #16]	@ (220c0 <hal_flash_sec_enable_rmp_region+0x18>)
   220ae:	681c      	ldr	r4, [r3, #0]
   220b0:	4613      	mov	r3, r2
   220b2:	460a      	mov	r2, r1
   220b4:	4601      	mov	r1, r0
   220b6:	4803      	ldr	r0, [pc, #12]	@ (220c4 <hal_flash_sec_enable_rmp_region+0x1c>)
   220b8:	47a0      	blx	r4
   220ba:	b002      	add	sp, #8
   220bc:	bd10      	pop	{r4, pc}
   220be:	bf00      	nop
   220c0:	10001130 	.word	0x10001130
   220c4:	00018b68 	.word	0x00018b68

000220c8 <hal_flash_sec_set_word_from_byte_bigen>:
   220c8:	2300      	movs	r3, #0
   220ca:	b507      	push	{r0, r1, r2, lr}
   220cc:	9301      	str	r3, [sp, #4]
   220ce:	4b04      	ldr	r3, [pc, #16]	@ (220e0 <hal_flash_sec_set_word_from_byte_bigen+0x18>)
   220d0:	695b      	ldr	r3, [r3, #20]
   220d2:	4798      	blx	r3
   220d4:	9001      	str	r0, [sp, #4]
   220d6:	9801      	ldr	r0, [sp, #4]
   220d8:	b003      	add	sp, #12
   220da:	f85d fb04 	ldr.w	pc, [sp], #4
   220de:	bf00      	nop
   220e0:	10001130 	.word	0x10001130

000220e4 <hal_flash_sec_default_calculate_tag_base>:
   220e4:	b51f      	push	{r0, r1, r2, r3, r4, lr}
   220e6:	9c06      	ldr	r4, [sp, #24]
   220e8:	9200      	str	r2, [sp, #0]
   220ea:	4602      	mov	r2, r0
   220ec:	2020      	movs	r0, #32
   220ee:	e9cd 3401 	strd	r3, r4, [sp, #4]
   220f2:	4b03      	ldr	r3, [pc, #12]	@ (22100 <hal_flash_sec_default_calculate_tag_base+0x1c>)
   220f4:	685c      	ldr	r4, [r3, #4]
   220f6:	460b      	mov	r3, r1
   220f8:	2104      	movs	r1, #4
   220fa:	47a0      	blx	r4
   220fc:	b004      	add	sp, #16
   220fe:	bd10      	pop	{r4, pc}
   22100:	10001130 	.word	0x10001130

00022104 <hal_flash_sec_default_decrypt_init>:
   22104:	2304      	movs	r3, #4
   22106:	b513      	push	{r0, r1, r4, lr}
   22108:	9300      	str	r3, [sp, #0]
   2210a:	4601      	mov	r1, r0
   2210c:	4b03      	ldr	r3, [pc, #12]	@ (2211c <hal_flash_sec_default_decrypt_init+0x18>)
   2210e:	4804      	ldr	r0, [pc, #16]	@ (22120 <hal_flash_sec_default_decrypt_init+0x1c>)
   22110:	689c      	ldr	r4, [r3, #8]
   22112:	2320      	movs	r3, #32
   22114:	461a      	mov	r2, r3
   22116:	47a0      	blx	r4
   22118:	b002      	add	sp, #8
   2211a:	bd10      	pop	{r4, pc}
   2211c:	10001130 	.word	0x10001130
   22120:	00018b68 	.word	0x00018b68

00022124 <hal_flash_sec_decrypt_region_init>:
   22124:	2a07      	cmp	r2, #7
   22126:	4613      	mov	r3, r2
   22128:	b510      	push	{r4, lr}
   2212a:	d806      	bhi.n	2213a <hal_flash_sec_decrypt_region_init+0x16>
   2212c:	4c04      	ldr	r4, [pc, #16]	@ (22140 <hal_flash_sec_decrypt_region_init+0x1c>)
   2212e:	460a      	mov	r2, r1
   22130:	4601      	mov	r1, r0
   22132:	4804      	ldr	r0, [pc, #16]	@ (22144 <hal_flash_sec_decrypt_region_init+0x20>)
   22134:	68e4      	ldr	r4, [r4, #12]
   22136:	47a0      	blx	r4
   22138:	bd10      	pop	{r4, pc}
   2213a:	2003      	movs	r0, #3
   2213c:	e7fc      	b.n	22138 <hal_flash_sec_decrypt_region_init+0x14>
   2213e:	bf00      	nop
   22140:	10001130 	.word	0x10001130
   22144:	00018b68 	.word	0x00018b68

00022148 <hal_flash_sec_decrypt_region_enable>:
   22148:	b513      	push	{r0, r1, r4, lr}
   2214a:	9300      	str	r3, [sp, #0]
   2214c:	4b04      	ldr	r3, [pc, #16]	@ (22160 <hal_flash_sec_decrypt_region_enable+0x18>)
   2214e:	691c      	ldr	r4, [r3, #16]
   22150:	4613      	mov	r3, r2
   22152:	460a      	mov	r2, r1
   22154:	4601      	mov	r1, r0
   22156:	4803      	ldr	r0, [pc, #12]	@ (22164 <hal_flash_sec_decrypt_region_enable+0x1c>)
   22158:	47a0      	blx	r4
   2215a:	b002      	add	sp, #8
   2215c:	bd10      	pop	{r4, pc}
   2215e:	bf00      	nop
   22160:	10001130 	.word	0x10001130
   22164:	00018b68 	.word	0x00018b68

00022168 <hal_flash_sec_remap_region>:
   22168:	b570      	push	{r4, r5, r6, lr}
   2216a:	6986      	ldr	r6, [r0, #24]
   2216c:	4602      	mov	r2, r0
   2216e:	6884      	ldr	r4, [r0, #8]
   22170:	4631      	mov	r1, r6
   22172:	4620      	mov	r0, r4
   22174:	f7ff ff58 	bl	22028 <check_addr_region>
   22178:	b9d8      	cbnz	r0, 221b2 <hal_flash_sec_remap_region+0x4a>
   2217a:	68d5      	ldr	r5, [r2, #12]
   2217c:	4628      	mov	r0, r5
   2217e:	f7ff ff53 	bl	22028 <check_addr_region>
   22182:	b9b0      	cbnz	r0, 221b2 <hal_flash_sec_remap_region+0x4a>
   22184:	42ac      	cmp	r4, r5
   22186:	d910      	bls.n	221aa <hal_flash_sec_remap_region+0x42>
   22188:	4435      	add	r5, r6
   2218a:	42ac      	cmp	r4, r5
   2218c:	d311      	bcc.n	221b2 <hal_flash_sec_remap_region+0x4a>
   2218e:	7953      	ldrb	r3, [r2, #5]
   22190:	2b01      	cmp	r3, #1
   22192:	d80e      	bhi.n	221b2 <hal_flash_sec_remap_region+0x4a>
   22194:	7893      	ldrb	r3, [r2, #2]
   22196:	2b03      	cmp	r3, #3
   22198:	d80b      	bhi.n	221b2 <hal_flash_sec_remap_region+0x4a>
   2219a:	4b07      	ldr	r3, [pc, #28]	@ (221b8 <hal_flash_sec_remap_region+0x50>)
   2219c:	4610      	mov	r0, r2
   2219e:	6b1b      	ldr	r3, [r3, #48]	@ 0x30
   221a0:	4798      	blx	r3
   221a2:	b908      	cbnz	r0, 221a8 <hal_flash_sec_remap_region+0x40>
   221a4:	f7ff ff5a 	bl	2205c <check_rom_error>
   221a8:	bd70      	pop	{r4, r5, r6, pc}
   221aa:	d202      	bcs.n	221b2 <hal_flash_sec_remap_region+0x4a>
   221ac:	4434      	add	r4, r6
   221ae:	42a5      	cmp	r5, r4
   221b0:	e7ec      	b.n	2218c <hal_flash_sec_remap_region+0x24>
   221b2:	2003      	movs	r0, #3
   221b4:	e7f8      	b.n	221a8 <hal_flash_sec_remap_region+0x40>
   221b6:	bf00      	nop
   221b8:	10000ca0 	.word	0x10000ca0

000221bc <hal_flash_sec_enable_remap_region>:
   221bc:	b508      	push	{r3, lr}
   221be:	2301      	movs	r3, #1
   221c0:	7143      	strb	r3, [r0, #5]
   221c2:	f7ff ffd1 	bl	22168 <hal_flash_sec_remap_region>
   221c6:	bd08      	pop	{r3, pc}

000221c8 <hal_flash_sec_disable_remap_region>:
   221c8:	b508      	push	{r3, lr}
   221ca:	4b02      	ldr	r3, [pc, #8]	@ (221d4 <hal_flash_sec_disable_remap_region+0xc>)
   221cc:	6b5b      	ldr	r3, [r3, #52]	@ 0x34
   221ce:	4798      	blx	r3
   221d0:	bd08      	pop	{r3, pc}
   221d2:	bf00      	nop
   221d4:	10000ca0 	.word	0x10000ca0

000221d8 <hal_flash_sec_disable_decrypt_region>:
   221d8:	b508      	push	{r3, lr}
   221da:	4b02      	ldr	r3, [pc, #8]	@ (221e4 <hal_flash_sec_disable_decrypt_region+0xc>)
   221dc:	6c1b      	ldr	r3, [r3, #64]	@ 0x40
   221de:	4798      	blx	r3
   221e0:	bd08      	pop	{r3, pc}
   221e2:	bf00      	nop
   221e4:	10000ca0 	.word	0x10000ca0

000221e8 <hal_flash_sec_disable_dec_region>:
   221e8:	b508      	push	{r3, lr}
   221ea:	4b03      	ldr	r3, [pc, #12]	@ (221f8 <hal_flash_sec_disable_dec_region+0x10>)
   221ec:	7058      	strb	r0, [r3, #1]
   221ee:	4618      	mov	r0, r3
   221f0:	f7ff fff2 	bl	221d8 <hal_flash_sec_disable_decrypt_region>
   221f4:	bd08      	pop	{r3, pc}
   221f6:	bf00      	nop
   221f8:	00018b68 	.word	0x00018b68

000221fc <hal_flash_sec_disable_rmp_region>:
   221fc:	b508      	push	{r3, lr}
   221fe:	4b03      	ldr	r3, [pc, #12]	@ (2220c <hal_flash_sec_disable_rmp_region+0x10>)
   22200:	7098      	strb	r0, [r3, #2]
   22202:	4618      	mov	r0, r3
   22204:	f7ff ffe0 	bl	221c8 <hal_flash_sec_disable_remap_region>
   22208:	bd08      	pop	{r3, pc}
   2220a:	bf00      	nop
   2220c:	00018b68 	.word	0x00018b68

00022210 <hal_hkdf_hmac_sha2_256_init>:
   22210:	b508      	push	{r3, lr}
   22212:	4603      	mov	r3, r0
   22214:	4608      	mov	r0, r1
   22216:	4611      	mov	r1, r2
   22218:	b16b      	cbz	r3, 22236 <hal_hkdf_hmac_sha2_256_init+0x26>
   2221a:	889a      	ldrh	r2, [r3, #4]
   2221c:	b96a      	cbnz	r2, 2223a <hal_hkdf_hmac_sha2_256_init+0x2a>
   2221e:	785a      	ldrb	r2, [r3, #1]
   22220:	2a01      	cmp	r2, #1
   22222:	d10d      	bne.n	22240 <hal_hkdf_hmac_sha2_256_init+0x30>
   22224:	68db      	ldr	r3, [r3, #12]
   22226:	b913      	cbnz	r3, 2222e <hal_hkdf_hmac_sha2_256_init+0x1e>
   22228:	f002 f8aa 	bl	24380 <hal_crypto_hmac_sha2_256_init>
   2222c:	bd08      	pop	{r3, pc}
   2222e:	4619      	mov	r1, r3
   22230:	f002 f924 	bl	2447c <hal_crypto_hmac_sha2_256_sk_init>
   22234:	e7fa      	b.n	2222c <hal_hkdf_hmac_sha2_256_init+0x1c>
   22236:	2003      	movs	r0, #3
   22238:	e7f8      	b.n	2222c <hal_hkdf_hmac_sha2_256_init+0x1c>
   2223a:	f06f 0009 	mvn.w	r0, #9
   2223e:	e7f5      	b.n	2222c <hal_hkdf_hmac_sha2_256_init+0x1c>
   22240:	f06f 000a 	mvn.w	r0, #10
   22244:	e7f2      	b.n	2222c <hal_hkdf_hmac_sha2_256_init+0x1c>

00022246 <hal_hkdf_hmac_sha2_256_update>:
   22246:	b508      	push	{r3, lr}
   22248:	4603      	mov	r3, r0
   2224a:	4608      	mov	r0, r1
   2224c:	4611      	mov	r1, r2
   2224e:	b13b      	cbz	r3, 22260 <hal_hkdf_hmac_sha2_256_update+0x1a>
   22250:	889a      	ldrh	r2, [r3, #4]
   22252:	b93a      	cbnz	r2, 22264 <hal_hkdf_hmac_sha2_256_update+0x1e>
   22254:	785b      	ldrb	r3, [r3, #1]
   22256:	2b01      	cmp	r3, #1
   22258:	d107      	bne.n	2226a <hal_hkdf_hmac_sha2_256_update+0x24>
   2225a:	f002 f8b3 	bl	243c4 <hal_crypto_hmac_sha2_256_update>
   2225e:	bd08      	pop	{r3, pc}
   22260:	2003      	movs	r0, #3
   22262:	e7fc      	b.n	2225e <hal_hkdf_hmac_sha2_256_update+0x18>
   22264:	f06f 0009 	mvn.w	r0, #9
   22268:	e7f9      	b.n	2225e <hal_hkdf_hmac_sha2_256_update+0x18>
   2226a:	f06f 000a 	mvn.w	r0, #10
   2226e:	e7f6      	b.n	2225e <hal_hkdf_hmac_sha2_256_update+0x18>

00022270 <hal_hkdf_hmac_sha2_256_final>:
   22270:	b508      	push	{r3, lr}
   22272:	4603      	mov	r3, r0
   22274:	4608      	mov	r0, r1
   22276:	b163      	cbz	r3, 22292 <hal_hkdf_hmac_sha2_256_final+0x22>
   22278:	889a      	ldrh	r2, [r3, #4]
   2227a:	b962      	cbnz	r2, 22296 <hal_hkdf_hmac_sha2_256_final+0x26>
   2227c:	785a      	ldrb	r2, [r3, #1]
   2227e:	2a01      	cmp	r2, #1
   22280:	d10c      	bne.n	2229c <hal_hkdf_hmac_sha2_256_final+0x2c>
   22282:	68db      	ldr	r3, [r3, #12]
   22284:	b913      	cbnz	r3, 2228c <hal_hkdf_hmac_sha2_256_final+0x1c>
   22286:	f002 f8bb 	bl	24400 <hal_crypto_hmac_sha2_256_final>
   2228a:	bd08      	pop	{r3, pc}
   2228c:	f002 f912 	bl	244b4 <hal_crypto_hmac_sha2_256_sk_final>
   22290:	e7fb      	b.n	2228a <hal_hkdf_hmac_sha2_256_final+0x1a>
   22292:	2003      	movs	r0, #3
   22294:	e7f9      	b.n	2228a <hal_hkdf_hmac_sha2_256_final+0x1a>
   22296:	f06f 0009 	mvn.w	r0, #9
   2229a:	e7f6      	b.n	2228a <hal_hkdf_hmac_sha2_256_final+0x1a>
   2229c:	f06f 000a 	mvn.w	r0, #10
   222a0:	e7f3      	b.n	2228a <hal_hkdf_hmac_sha2_256_final+0x1a>
	...

000222a4 <hal_hkdf_hook_operate_f>:
   222a4:	4603      	mov	r3, r0
   222a6:	480b      	ldr	r0, [pc, #44]	@ (222d4 <hal_hkdf_hook_operate_f+0x30>)
   222a8:	b570      	push	{r4, r5, r6, lr}
   222aa:	4614      	mov	r4, r2
   222ac:	7802      	ldrb	r2, [r0, #0]
   222ae:	460e      	mov	r6, r1
   222b0:	2a01      	cmp	r2, #1
   222b2:	d10d      	bne.n	222d0 <hal_hkdf_hook_operate_f+0x2c>
   222b4:	4d08      	ldr	r5, [pc, #32]	@ (222d8 <hal_hkdf_hook_operate_f+0x34>)
   222b6:	4619      	mov	r1, r3
   222b8:	682a      	ldr	r2, [r5, #0]
   222ba:	4790      	blx	r2
   222bc:	686b      	ldr	r3, [r5, #4]
   222be:	4631      	mov	r1, r6
   222c0:	4804      	ldr	r0, [pc, #16]	@ (222d4 <hal_hkdf_hook_operate_f+0x30>)
   222c2:	4798      	blx	r3
   222c4:	4803      	ldr	r0, [pc, #12]	@ (222d4 <hal_hkdf_hook_operate_f+0x30>)
   222c6:	68ab      	ldr	r3, [r5, #8]
   222c8:	4621      	mov	r1, r4
   222ca:	4798      	blx	r3
   222cc:	2000      	movs	r0, #0
   222ce:	bd70      	pop	{r4, r5, r6, pc}
   222d0:	2006      	movs	r0, #6
   222d2:	e7fc      	b.n	222ce <hal_hkdf_hook_operate_f+0x2a>
   222d4:	00018bc0 	.word	0x00018bc0
   222d8:	10001070 	.word	0x10001070

000222dc <hal_hkdf_init>:
   222dc:	e92d 41f0 	stmdb	sp!, {r4, r5, r6, r7, r8, lr}
   222e0:	460d      	mov	r5, r1
   222e2:	4616      	mov	r6, r2
   222e4:	4604      	mov	r4, r0
   222e6:	2800      	cmp	r0, #0
   222e8:	d03b      	beq.n	22362 <hal_hkdf_init+0x86>
   222ea:	f44f 7290 	mov.w	r2, #288	@ 0x120
   222ee:	2100      	movs	r1, #0
   222f0:	f00a fe86 	bl	2d000 <__wrap_memset>
   222f4:	0c2b      	lsrs	r3, r5, #16
   222f6:	b2af      	uxth	r7, r5
   222f8:	ea4f 4815 	mov.w	r8, r5, lsr #16
   222fc:	d113      	bne.n	22326 <hal_hkdf_init+0x4a>
   222fe:	f001 fe95 	bl	2402c <hal_crypto_engine_chk_init>
   22302:	2801      	cmp	r0, #1
   22304:	d00b      	beq.n	2231e <hal_hkdf_init+0x42>
   22306:	f001 fecd 	bl	240a4 <hal_crypto_engine_init>
   2230a:	b140      	cbz	r0, 2231e <hal_hkdf_init+0x42>
   2230c:	4b16      	ldr	r3, [pc, #88]	@ (22368 <hal_hkdf_init+0x8c>)
   2230e:	781b      	ldrb	r3, [r3, #0]
   22310:	b11b      	cbz	r3, 2231a <hal_hkdf_init+0x3e>
   22312:	4b16      	ldr	r3, [pc, #88]	@ (2236c <hal_hkdf_init+0x90>)
   22314:	4816      	ldr	r0, [pc, #88]	@ (22370 <hal_hkdf_init+0x94>)
   22316:	69db      	ldr	r3, [r3, #28]
   22318:	4798      	blx	r3
   2231a:	2005      	movs	r0, #5
   2231c:	e01f      	b.n	2235e <hal_hkdf_init+0x82>
   2231e:	2301      	movs	r3, #1
   22320:	7063      	strb	r3, [r4, #1]
   22322:	2300      	movs	r3, #0
   22324:	60a3      	str	r3, [r4, #8]
   22326:	b2ad      	uxth	r5, r5
   22328:	f8a4 8004 	strh.w	r8, [r4, #4]
   2232c:	b14d      	cbz	r5, 22342 <hal_hkdf_init+0x66>
   2232e:	3d01      	subs	r5, #1
   22330:	2d01      	cmp	r5, #1
   22332:	d90b      	bls.n	2234c <hal_hkdf_init+0x70>
   22334:	2320      	movs	r3, #32
   22336:	2700      	movs	r7, #0
   22338:	64e3      	str	r3, [r4, #76]	@ 0x4c
   2233a:	64a3      	str	r3, [r4, #72]	@ 0x48
   2233c:	e9c4 3308 	strd	r3, r3, [r4, #32]
   22340:	e004      	b.n	2234c <hal_hkdf_init+0x70>
   22342:	2320      	movs	r3, #32
   22344:	64e3      	str	r3, [r4, #76]	@ 0x4c
   22346:	64a3      	str	r3, [r4, #72]	@ 0x48
   22348:	e9c4 3308 	strd	r3, r3, [r4, #32]
   2234c:	2301      	movs	r3, #1
   2234e:	4a09      	ldr	r2, [pc, #36]	@ (22374 <hal_hkdf_init+0x98>)
   22350:	4909      	ldr	r1, [pc, #36]	@ (22378 <hal_hkdf_init+0x9c>)
   22352:	480a      	ldr	r0, [pc, #40]	@ (2237c <hal_hkdf_init+0xa0>)
   22354:	80e7      	strh	r7, [r4, #6]
   22356:	70a6      	strb	r6, [r4, #2]
   22358:	7023      	strb	r3, [r4, #0]
   2235a:	f7ff ffa3 	bl	222a4 <hal_hkdf_hook_operate_f>
   2235e:	e8bd 81f0 	ldmia.w	sp!, {r4, r5, r6, r7, r8, pc}
   22362:	2003      	movs	r0, #3
   22364:	e7fb      	b.n	2235e <hal_hkdf_init+0x82>
   22366:	bf00      	nop
   22368:	0001a2a0 	.word	0x0001a2a0
   2236c:	100bc800 	.word	0x100bc800
   22370:	20101984 	.word	0x20101984
   22374:	00022271 	.word	0x00022271
   22378:	00022247 	.word	0x00022247
   2237c:	00022211 	.word	0x00022211

00022380 <hal_hkdf_hmac_init>:
   22380:	ea41 4100 	orr.w	r1, r1, r0, lsl #16
   22384:	2200      	movs	r2, #0
   22386:	4802      	ldr	r0, [pc, #8]	@ (22390 <hal_hkdf_hmac_init+0x10>)
   22388:	b508      	push	{r3, lr}
   2238a:	f7ff ffa7 	bl	222dc <hal_hkdf_init>
   2238e:	bd08      	pop	{r3, pc}
   22390:	00018bc0 	.word	0x00018bc0

00022394 <hal_hkdf_hmac_sha256_secure_init>:
   22394:	2100      	movs	r1, #0
   22396:	b508      	push	{r3, lr}
   22398:	f7ff fff2 	bl	22380 <hal_hkdf_hmac_init>
   2239c:	bd08      	pop	{r3, pc}
	...

000223a0 <hal_hkdf_extract_secure_all>:
   223a0:	4613      	mov	r3, r2
   223a2:	b510      	push	{r4, lr}
   223a4:	b132      	cbz	r2, 223b4 <hal_hkdf_extract_secure_all+0x14>
   223a6:	4c04      	ldr	r4, [pc, #16]	@ (223b8 <hal_hkdf_extract_secure_all+0x18>)
   223a8:	460a      	mov	r2, r1
   223aa:	4601      	mov	r1, r0
   223ac:	4803      	ldr	r0, [pc, #12]	@ (223bc <hal_hkdf_extract_secure_all+0x1c>)
   223ae:	68e4      	ldr	r4, [r4, #12]
   223b0:	47a0      	blx	r4
   223b2:	bd10      	pop	{r4, pc}
   223b4:	2003      	movs	r0, #3
   223b6:	e7fc      	b.n	223b2 <hal_hkdf_extract_secure_all+0x12>
   223b8:	10001070 	.word	0x10001070
   223bc:	00018bc0 	.word	0x00018bc0

000223c0 <hal_hkdf_expand_secure_all>:
   223c0:	4613      	mov	r3, r2
   223c2:	b510      	push	{r4, lr}
   223c4:	b132      	cbz	r2, 223d4 <hal_hkdf_expand_secure_all+0x14>
   223c6:	4c04      	ldr	r4, [pc, #16]	@ (223d8 <hal_hkdf_expand_secure_all+0x18>)
   223c8:	460a      	mov	r2, r1
   223ca:	4601      	mov	r1, r0
   223cc:	4803      	ldr	r0, [pc, #12]	@ (223dc <hal_hkdf_expand_secure_all+0x1c>)
   223ce:	6924      	ldr	r4, [r4, #16]
   223d0:	47a0      	blx	r4
   223d2:	bd10      	pop	{r4, pc}
   223d4:	2003      	movs	r0, #3
   223d6:	e7fc      	b.n	223d2 <hal_hkdf_expand_secure_all+0x12>
   223d8:	10001070 	.word	0x10001070
   223dc:	00018bc0 	.word	0x00018bc0

000223e0 <hal_trng_sec_init>:
   223e0:	b508      	push	{r3, lr}
   223e2:	f00a feef 	bl	2d1c4 <hal_sys_get_rom_ver>
   223e6:	b2c0      	uxtb	r0, r0
   223e8:	2802      	cmp	r0, #2
   223ea:	4807      	ldr	r0, [pc, #28]	@ (22408 <hal_trng_sec_init+0x28>)
   223ec:	d906      	bls.n	223fc <hal_trng_sec_init+0x1c>
   223ee:	7903      	ldrb	r3, [r0, #4]
   223f0:	2b01      	cmp	r3, #1
   223f2:	d006      	beq.n	22402 <hal_trng_sec_init+0x22>
   223f4:	4b05      	ldr	r3, [pc, #20]	@ (2240c <hal_trng_sec_init+0x2c>)
   223f6:	681b      	ldr	r3, [r3, #0]
   223f8:	4798      	blx	r3
   223fa:	bd08      	pop	{r3, pc}
   223fc:	f00c fa5a 	bl	2e8b4 <hal_rtl_trng_sec_init_patch>
   22400:	e7fb      	b.n	223fa <hal_trng_sec_init+0x1a>
   22402:	2000      	movs	r0, #0
   22404:	e7f9      	b.n	223fa <hal_trng_sec_init+0x1a>
   22406:	bf00      	nop
   22408:	00018ce0 	.word	0x00018ce0
   2240c:	10001240 	.word	0x10001240

00022410 <hal_trng_sec_deinit>:
   22410:	b508      	push	{r3, lr}
   22412:	f00a fed7 	bl	2d1c4 <hal_sys_get_rom_ver>
   22416:	b2c0      	uxtb	r0, r0
   22418:	2802      	cmp	r0, #2
   2241a:	4807      	ldr	r0, [pc, #28]	@ (22438 <hal_trng_sec_deinit+0x28>)
   2241c:	d906      	bls.n	2242c <hal_trng_sec_deinit+0x1c>
   2241e:	7903      	ldrb	r3, [r0, #4]
   22420:	2b01      	cmp	r3, #1
   22422:	d106      	bne.n	22432 <hal_trng_sec_deinit+0x22>
   22424:	4b05      	ldr	r3, [pc, #20]	@ (2243c <hal_trng_sec_deinit+0x2c>)
   22426:	685b      	ldr	r3, [r3, #4]
   22428:	4798      	blx	r3
   2242a:	bd08      	pop	{r3, pc}
   2242c:	f00c fa64 	bl	2e8f8 <hal_rtl_trng_sec_deinit_patch>
   22430:	e7fb      	b.n	2242a <hal_trng_sec_deinit+0x1a>
   22432:	2011      	movs	r0, #17
   22434:	e7f9      	b.n	2242a <hal_trng_sec_deinit+0x1a>
   22436:	bf00      	nop
   22438:	00018ce0 	.word	0x00018ce0
   2243c:	10001240 	.word	0x10001240

00022440 <hal_trng_sec_set_clk>:
   22440:	b507      	push	{r0, r1, r2, lr}
   22442:	9001      	str	r0, [sp, #4]
   22444:	f00a febe 	bl	2d1c4 <hal_sys_get_rom_ver>
   22448:	b2c0      	uxtb	r0, r0
   2244a:	9901      	ldr	r1, [sp, #4]
   2244c:	2802      	cmp	r0, #2
   2244e:	d906      	bls.n	2245e <hal_trng_sec_set_clk+0x1e>
   22450:	4b05      	ldr	r3, [pc, #20]	@ (22468 <hal_trng_sec_set_clk+0x28>)
   22452:	4806      	ldr	r0, [pc, #24]	@ (2246c <hal_trng_sec_set_clk+0x2c>)
   22454:	689b      	ldr	r3, [r3, #8]
   22456:	4798      	blx	r3
   22458:	b003      	add	sp, #12
   2245a:	f85d fb04 	ldr.w	pc, [sp], #4
   2245e:	4803      	ldr	r0, [pc, #12]	@ (2246c <hal_trng_sec_set_clk+0x2c>)
   22460:	f00c fa10 	bl	2e884 <hal_rtl_trng_sec_set_clk_patch>
   22464:	e7f8      	b.n	22458 <hal_trng_sec_set_clk+0x18>
   22466:	bf00      	nop
   22468:	10001240 	.word	0x10001240
   2246c:	00018ce0 	.word	0x00018ce0

00022470 <hal_trng_sec_swrst_en>:
   22470:	b508      	push	{r3, lr}
   22472:	f00a fea7 	bl	2d1c4 <hal_sys_get_rom_ver>
   22476:	b2c0      	uxtb	r0, r0
   22478:	2802      	cmp	r0, #2
   2247a:	d904      	bls.n	22486 <hal_trng_sec_swrst_en+0x16>
   2247c:	4b04      	ldr	r3, [pc, #16]	@ (22490 <hal_trng_sec_swrst_en+0x20>)
   2247e:	4805      	ldr	r0, [pc, #20]	@ (22494 <hal_trng_sec_swrst_en+0x24>)
   22480:	68db      	ldr	r3, [r3, #12]
   22482:	4798      	blx	r3
   22484:	bd08      	pop	{r3, pc}
   22486:	4803      	ldr	r0, [pc, #12]	@ (22494 <hal_trng_sec_swrst_en+0x24>)
   22488:	f00c f9b4 	bl	2e7f4 <hal_rtl_trng_sec_swrst_en_patch>
   2248c:	e7fa      	b.n	22484 <hal_trng_sec_swrst_en+0x14>
   2248e:	bf00      	nop
   22490:	10001240 	.word	0x10001240
   22494:	00018ce0 	.word	0x00018ce0

00022498 <hal_trng_sec_get_rand>:
   22498:	b508      	push	{r3, lr}
   2249a:	f00a fe93 	bl	2d1c4 <hal_sys_get_rom_ver>
   2249e:	b2c0      	uxtb	r0, r0
   224a0:	2802      	cmp	r0, #2
   224a2:	4807      	ldr	r0, [pc, #28]	@ (224c0 <hal_trng_sec_get_rand+0x28>)
   224a4:	d906      	bls.n	224b4 <hal_trng_sec_get_rand+0x1c>
   224a6:	7903      	ldrb	r3, [r0, #4]
   224a8:	2b01      	cmp	r3, #1
   224aa:	d106      	bne.n	224ba <hal_trng_sec_get_rand+0x22>
   224ac:	4b05      	ldr	r3, [pc, #20]	@ (224c4 <hal_trng_sec_get_rand+0x2c>)
   224ae:	691b      	ldr	r3, [r3, #16]
   224b0:	4798      	blx	r3
   224b2:	bd08      	pop	{r3, pc}
   224b4:	f00c fa35 	bl	2e922 <hal_rtl_trng_sec_get_rand_patch>
   224b8:	e7fb      	b.n	224b2 <hal_trng_sec_get_rand+0x1a>
   224ba:	2000      	movs	r0, #0
   224bc:	e7f9      	b.n	224b2 <hal_trng_sec_get_rand+0x1a>
   224be:	bf00      	nop
   224c0:	00018ce0 	.word	0x00018ce0
   224c4:	10001240 	.word	0x10001240

000224c8 <hal_trng_sec_load_default_setting>:
   224c8:	b507      	push	{r0, r1, r2, lr}
   224ca:	9001      	str	r0, [sp, #4]
   224cc:	f00a fe7a 	bl	2d1c4 <hal_sys_get_rom_ver>
   224d0:	b2c0      	uxtb	r0, r0
   224d2:	9901      	ldr	r1, [sp, #4]
   224d4:	2802      	cmp	r0, #2
   224d6:	4808      	ldr	r0, [pc, #32]	@ (224f8 <hal_trng_sec_load_default_setting+0x30>)
   224d8:	d908      	bls.n	224ec <hal_trng_sec_load_default_setting+0x24>
   224da:	7903      	ldrb	r3, [r0, #4]
   224dc:	2b01      	cmp	r3, #1
   224de:	d108      	bne.n	224f2 <hal_trng_sec_load_default_setting+0x2a>
   224e0:	4b06      	ldr	r3, [pc, #24]	@ (224fc <hal_trng_sec_load_default_setting+0x34>)
   224e2:	6a1b      	ldr	r3, [r3, #32]
   224e4:	4798      	blx	r3
   224e6:	b003      	add	sp, #12
   224e8:	f85d fb04 	ldr.w	pc, [sp], #4
   224ec:	f00c f9a0 	bl	2e830 <hal_rtl_trng_sec_load_default_setting_patch>
   224f0:	e7f9      	b.n	224e6 <hal_trng_sec_load_default_setting+0x1e>
   224f2:	2011      	movs	r0, #17
   224f4:	e7f7      	b.n	224e6 <hal_trng_sec_load_default_setting+0x1e>
   224f6:	bf00      	nop
   224f8:	00018ce0 	.word	0x00018ce0
   224fc:	10001240 	.word	0x10001240

00022500 <hal_wdt_enable>:
   22500:	b508      	push	{r3, lr}
   22502:	4b02      	ldr	r3, [pc, #8]	@ (2250c <hal_wdt_enable+0xc>)
   22504:	689b      	ldr	r3, [r3, #8]
   22506:	4798      	blx	r3
   22508:	bd08      	pop	{r3, pc}
   2250a:	bf00      	nop
   2250c:	10000b00 	.word	0x10000b00

00022510 <hal_wdt_refresh>:
   22510:	b508      	push	{r3, lr}
   22512:	4b02      	ldr	r3, [pc, #8]	@ (2251c <hal_wdt_refresh+0xc>)
   22514:	691b      	ldr	r3, [r3, #16]
   22516:	4798      	blx	r3
   22518:	bd08      	pop	{r3, pc}
   2251a:	bf00      	nop
   2251c:	10000b00 	.word	0x10000b00

00022520 <hal_wdt_aon_enable>:
   22520:	b508      	push	{r3, lr}
   22522:	4b02      	ldr	r3, [pc, #8]	@ (2252c <hal_wdt_aon_enable+0xc>)
   22524:	6a1b      	ldr	r3, [r3, #32]
   22526:	4798      	blx	r3
   22528:	bd08      	pop	{r3, pc}
   2252a:	bf00      	nop
   2252c:	10000b00 	.word	0x10000b00

00022530 <hal_wdt_aon_disable>:
   22530:	b508      	push	{r3, lr}
   22532:	4b02      	ldr	r3, [pc, #8]	@ (2253c <hal_wdt_aon_disable+0xc>)
   22534:	6a5b      	ldr	r3, [r3, #36]	@ 0x24
   22536:	4798      	blx	r3
   22538:	bd08      	pop	{r3, pc}
   2253a:	bf00      	nop
   2253c:	10000b00 	.word	0x10000b00

00022540 <hal_wdt_check_wdt_en>:
   22540:	2811      	cmp	r0, #17
   22542:	b082      	sub	sp, #8
   22544:	d10b      	bne.n	2255e <hal_wdt_check_wdt_en+0x1e>
   22546:	4b0b      	ldr	r3, [pc, #44]	@ (22574 <hal_wdt_check_wdt_en+0x34>)
   22548:	2201      	movs	r2, #1
   2254a:	f8d3 30b4 	ldr.w	r3, [r3, #180]	@ 0xb4
   2254e:	9301      	str	r3, [sp, #4]
   22550:	2300      	movs	r3, #0
   22552:	9801      	ldr	r0, [sp, #4]
   22554:	4010      	ands	r0, r2
   22556:	40d8      	lsrs	r0, r3
   22558:	b2c0      	uxtb	r0, r0
   2255a:	b002      	add	sp, #8
   2255c:	4770      	bx	lr
   2255e:	2812      	cmp	r0, #18
   22560:	d106      	bne.n	22570 <hal_wdt_check_wdt_en+0x30>
   22562:	4b05      	ldr	r3, [pc, #20]	@ (22578 <hal_wdt_check_wdt_en+0x38>)
   22564:	f44f 3280 	mov.w	r2, #65536	@ 0x10000
   22568:	681b      	ldr	r3, [r3, #0]
   2256a:	9301      	str	r3, [sp, #4]
   2256c:	2310      	movs	r3, #16
   2256e:	e7f0      	b.n	22552 <hal_wdt_check_wdt_en+0x12>
   22570:	2000      	movs	r0, #0
   22572:	e7f2      	b.n	2255a <hal_wdt_check_wdt_en+0x1a>
   22574:	40009000 	.word	0x40009000
   22578:	50002c00 	.word	0x50002c00

0002257c <hal_i2c_pure_init>:
   2257c:	b508      	push	{r3, lr}
   2257e:	4b02      	ldr	r3, [pc, #8]	@ (22588 <hal_i2c_pure_init+0xc>)
   22580:	695b      	ldr	r3, [r3, #20]
   22582:	4798      	blx	r3
   22584:	bd08      	pop	{r3, pc}
   22586:	bf00      	nop
   22588:	10000580 	.word	0x10000580

0002258c <hal_i2c_set_clk>:
   2258c:	b508      	push	{r3, lr}
   2258e:	4b02      	ldr	r3, [pc, #8]	@ (22598 <hal_i2c_set_clk+0xc>)
   22590:	6a1b      	ldr	r3, [r3, #32]
   22592:	4798      	blx	r3
   22594:	bd08      	pop	{r3, pc}
   22596:	bf00      	nop
   22598:	10000580 	.word	0x10000580

0002259c <hal_i2c_load_default>:
   2259c:	b508      	push	{r3, lr}
   2259e:	4b02      	ldr	r3, [pc, #8]	@ (225a8 <hal_i2c_load_default+0xc>)
   225a0:	6f5b      	ldr	r3, [r3, #116]	@ 0x74
   225a2:	4798      	blx	r3
   225a4:	bd08      	pop	{r3, pc}
   225a6:	bf00      	nop
   225a8:	10000580 	.word	0x10000580

000225ac <hal_dramc_ftend_init>:
   225ac:	2300      	movs	r3, #0
   225ae:	4a18      	ldr	r2, [pc, #96]	@ (22610 <hal_dramc_ftend_init+0x64>)
   225b0:	f8c0 3818 	str.w	r3, [r0, #2072]	@ 0x818
   225b4:	f8c0 3858 	str.w	r3, [r0, #2136]	@ 0x858
   225b8:	f8c0 3898 	str.w	r3, [r0, #2200]	@ 0x898
   225bc:	f8c0 38d8 	str.w	r3, [r0, #2264]	@ 0x8d8
   225c0:	f8c0 3918 	str.w	r3, [r0, #2328]	@ 0x918
   225c4:	f8c0 3958 	str.w	r3, [r0, #2392]	@ 0x958
   225c8:	2308      	movs	r3, #8
   225ca:	f8c0 3104 	str.w	r3, [r0, #260]	@ 0x104
   225ce:	4b11      	ldr	r3, [pc, #68]	@ (22614 <hal_dramc_ftend_init+0x68>)
   225d0:	f8c0 3800 	str.w	r3, [r0, #2048]	@ 0x800
   225d4:	f8c0 3804 	str.w	r3, [r0, #2052]	@ 0x804
   225d8:	f8c0 3840 	str.w	r3, [r0, #2112]	@ 0x840
   225dc:	f8c0 3844 	str.w	r3, [r0, #2116]	@ 0x844
   225e0:	f8c0 3880 	str.w	r3, [r0, #2176]	@ 0x880
   225e4:	f8c0 3884 	str.w	r3, [r0, #2180]	@ 0x884
   225e8:	f8c0 38c0 	str.w	r3, [r0, #2240]	@ 0x8c0
   225ec:	f8c0 38c4 	str.w	r3, [r0, #2244]	@ 0x8c4
   225f0:	f8c0 3900 	str.w	r3, [r0, #2304]	@ 0x900
   225f4:	f8c0 3904 	str.w	r3, [r0, #2308]	@ 0x904
   225f8:	f8c0 3940 	str.w	r3, [r0, #2368]	@ 0x940
   225fc:	f8c0 3944 	str.w	r3, [r0, #2372]	@ 0x944
   22600:	f04f 2340 	mov.w	r3, #1073758208	@ 0x40004000
   22604:	f8c3 2414 	str.w	r2, [r3, #1044]	@ 0x414
   22608:	f8c3 2418 	str.w	r2, [r3, #1048]	@ 0x418
   2260c:	4770      	bx	lr
   2260e:	bf00      	nop
   22610:	00fff0ff 	.word	0x00fff0ff
   22614:	02100a09 	.word	0x02100a09

00022618 <hal_dramc_perf_tune>:
   22618:	680b      	ldr	r3, [r1, #0]
   2261a:	e92d 4ff0 	stmdb	sp!, {r4, r5, r6, r7, r8, r9, sl, fp, lr}
   2261e:	b0c3      	sub	sp, #268	@ 0x10c
   22620:	799b      	ldrb	r3, [r3, #6]
   22622:	9001      	str	r0, [sp, #4]
   22624:	2b00      	cmp	r3, #0
   22626:	f000 827c 	beq.w	22b22 <hal_dramc_perf_tune+0x50a>
   2262a:	2b01      	cmp	r3, #1
   2262c:	d003      	beq.n	22636 <hal_dramc_perf_tune+0x1e>
   2262e:	2b03      	cmp	r3, #3
   22630:	bf14      	ite	ne
   22632:	2302      	movne	r3, #2
   22634:	2300      	moveq	r3, #0
   22636:	68ca      	ldr	r2, [r1, #12]
   22638:	9217      	str	r2, [sp, #92]	@ 0x5c
   2263a:	6ed2      	ldr	r2, [r2, #108]	@ 0x6c
   2263c:	7811      	ldrb	r1, [r2, #0]
   2263e:	9122      	str	r1, [sp, #136]	@ 0x88
   22640:	7851      	ldrb	r1, [r2, #1]
   22642:	9123      	str	r1, [sp, #140]	@ 0x8c
   22644:	7891      	ldrb	r1, [r2, #2]
   22646:	9124      	str	r1, [sp, #144]	@ 0x90
   22648:	78d1      	ldrb	r1, [r2, #3]
   2264a:	9125      	str	r1, [sp, #148]	@ 0x94
   2264c:	7911      	ldrb	r1, [r2, #4]
   2264e:	9126      	str	r1, [sp, #152]	@ 0x98
   22650:	7951      	ldrb	r1, [r2, #5]
   22652:	9127      	str	r1, [sp, #156]	@ 0x9c
   22654:	7991      	ldrb	r1, [r2, #6]
   22656:	9128      	str	r1, [sp, #160]	@ 0xa0
   22658:	79d1      	ldrb	r1, [r2, #7]
   2265a:	9129      	str	r1, [sp, #164]	@ 0xa4
   2265c:	7a11      	ldrb	r1, [r2, #8]
   2265e:	912a      	str	r1, [sp, #168]	@ 0xa8
   22660:	7a51      	ldrb	r1, [r2, #9]
   22662:	912b      	str	r1, [sp, #172]	@ 0xac
   22664:	7a91      	ldrb	r1, [r2, #10]
   22666:	912c      	str	r1, [sp, #176]	@ 0xb0
   22668:	7ad1      	ldrb	r1, [r2, #11]
   2266a:	912d      	str	r1, [sp, #180]	@ 0xb4
   2266c:	7b11      	ldrb	r1, [r2, #12]
   2266e:	912e      	str	r1, [sp, #184]	@ 0xb8
   22670:	7b51      	ldrb	r1, [r2, #13]
   22672:	912f      	str	r1, [sp, #188]	@ 0xbc
   22674:	7b91      	ldrb	r1, [r2, #14]
   22676:	9130      	str	r1, [sp, #192]	@ 0xc0
   22678:	7bd1      	ldrb	r1, [r2, #15]
   2267a:	9131      	str	r1, [sp, #196]	@ 0xc4
   2267c:	7c11      	ldrb	r1, [r2, #16]
   2267e:	9132      	str	r1, [sp, #200]	@ 0xc8
   22680:	7c51      	ldrb	r1, [r2, #17]
   22682:	9133      	str	r1, [sp, #204]	@ 0xcc
   22684:	7c91      	ldrb	r1, [r2, #18]
   22686:	9134      	str	r1, [sp, #208]	@ 0xd0
   22688:	7cd1      	ldrb	r1, [r2, #19]
   2268a:	9135      	str	r1, [sp, #212]	@ 0xd4
   2268c:	7d11      	ldrb	r1, [r2, #20]
   2268e:	9136      	str	r1, [sp, #216]	@ 0xd8
   22690:	7d51      	ldrb	r1, [r2, #21]
   22692:	9137      	str	r1, [sp, #220]	@ 0xdc
   22694:	7d91      	ldrb	r1, [r2, #22]
   22696:	9138      	str	r1, [sp, #224]	@ 0xe0
   22698:	7dd1      	ldrb	r1, [r2, #23]
   2269a:	9139      	str	r1, [sp, #228]	@ 0xe4
   2269c:	7e11      	ldrb	r1, [r2, #24]
   2269e:	913a      	str	r1, [sp, #232]	@ 0xe8
   226a0:	7e51      	ldrb	r1, [r2, #25]
   226a2:	913b      	str	r1, [sp, #236]	@ 0xec
   226a4:	7e91      	ldrb	r1, [r2, #26]
   226a6:	913c      	str	r1, [sp, #240]	@ 0xf0
   226a8:	7ed1      	ldrb	r1, [r2, #27]
   226aa:	913d      	str	r1, [sp, #244]	@ 0xf4
   226ac:	7f11      	ldrb	r1, [r2, #28]
   226ae:	913e      	str	r1, [sp, #248]	@ 0xf8
   226b0:	7f51      	ldrb	r1, [r2, #29]
   226b2:	913f      	str	r1, [sp, #252]	@ 0xfc
   226b4:	7f91      	ldrb	r1, [r2, #30]
   226b6:	9140      	str	r1, [sp, #256]	@ 0x100
   226b8:	2100      	movs	r1, #0
   226ba:	7fd2      	ldrb	r2, [r2, #31]
   226bc:	9241      	str	r2, [sp, #260]	@ 0x104
   226be:	2220      	movs	r2, #32
   226c0:	4610      	mov	r0, r2
   226c2:	4615      	mov	r5, r2
   226c4:	4616      	mov	r6, r2
   226c6:	4617      	mov	r7, r2
   226c8:	4694      	mov	ip, r2
   226ca:	4696      	mov	lr, r2
   226cc:	4690      	mov	r8, r2
   226ce:	4691      	mov	r9, r2
   226d0:	4692      	mov	sl, r2
   226d2:	4693      	mov	fp, r2
   226d4:	9208      	str	r2, [sp, #32]
   226d6:	e9cd 2215 	strd	r2, r2, [sp, #84]	@ 0x54
   226da:	e9cd 2213 	strd	r2, r2, [sp, #76]	@ 0x4c
   226de:	e9cd 2211 	strd	r2, r2, [sp, #68]	@ 0x44
   226e2:	e9cd 220f 	strd	r2, r2, [sp, #60]	@ 0x3c
   226e6:	e9cd 220d 	strd	r2, r2, [sp, #52]	@ 0x34
   226ea:	e9cd 220b 	strd	r2, r2, [sp, #44]	@ 0x2c
   226ee:	e9cd 2209 	strd	r2, r2, [sp, #36]	@ 0x24
   226f2:	e9cd 2206 	strd	r2, r2, [sp, #24]
   226f6:	e9cd 2204 	strd	r2, r2, [sp, #16]
   226fa:	e9cd 2202 	strd	r2, r2, [sp, #8]
   226fe:	ac22      	add	r4, sp, #136	@ 0x88
   22700:	f854 4021 	ldr.w	r4, [r4, r1, lsl #2]
   22704:	2c00      	cmp	r4, #0
   22706:	f000 820e 	beq.w	22b26 <hal_dramc_perf_tune+0x50e>
   2270a:	2c01      	cmp	r4, #1
   2270c:	f000 820d 	beq.w	22b2a <hal_dramc_perf_tune+0x512>
   22710:	2c02      	cmp	r4, #2
   22712:	f000 820c 	beq.w	22b2e <hal_dramc_perf_tune+0x516>
   22716:	2c03      	cmp	r4, #3
   22718:	f000 820b 	beq.w	22b32 <hal_dramc_perf_tune+0x51a>
   2271c:	2c04      	cmp	r4, #4
   2271e:	f000 820a 	beq.w	22b36 <hal_dramc_perf_tune+0x51e>
   22722:	2c05      	cmp	r4, #5
   22724:	f000 8209 	beq.w	22b3a <hal_dramc_perf_tune+0x522>
   22728:	2c06      	cmp	r4, #6
   2272a:	f000 8208 	beq.w	22b3e <hal_dramc_perf_tune+0x526>
   2272e:	2c07      	cmp	r4, #7
   22730:	f000 8207 	beq.w	22b42 <hal_dramc_perf_tune+0x52a>
   22734:	2c08      	cmp	r4, #8
   22736:	f000 8206 	beq.w	22b46 <hal_dramc_perf_tune+0x52e>
   2273a:	2c09      	cmp	r4, #9
   2273c:	f000 8205 	beq.w	22b4a <hal_dramc_perf_tune+0x532>
   22740:	2c0a      	cmp	r4, #10
   22742:	f000 8204 	beq.w	22b4e <hal_dramc_perf_tune+0x536>
   22746:	2c0b      	cmp	r4, #11
   22748:	f000 8203 	beq.w	22b52 <hal_dramc_perf_tune+0x53a>
   2274c:	2c0c      	cmp	r4, #12
   2274e:	f000 8202 	beq.w	22b56 <hal_dramc_perf_tune+0x53e>
   22752:	2c0d      	cmp	r4, #13
   22754:	f000 8201 	beq.w	22b5a <hal_dramc_perf_tune+0x542>
   22758:	2c0e      	cmp	r4, #14
   2275a:	f000 8200 	beq.w	22b5e <hal_dramc_perf_tune+0x546>
   2275e:	2c0f      	cmp	r4, #15
   22760:	f000 81ff 	beq.w	22b62 <hal_dramc_perf_tune+0x54a>
   22764:	2c10      	cmp	r4, #16
   22766:	f000 81fe 	beq.w	22b66 <hal_dramc_perf_tune+0x54e>
   2276a:	2c11      	cmp	r4, #17
   2276c:	f000 81fd 	beq.w	22b6a <hal_dramc_perf_tune+0x552>
   22770:	2c12      	cmp	r4, #18
   22772:	f000 81fc 	beq.w	22b6e <hal_dramc_perf_tune+0x556>
   22776:	2c13      	cmp	r4, #19
   22778:	f000 81fb 	beq.w	22b72 <hal_dramc_perf_tune+0x55a>
   2277c:	2c14      	cmp	r4, #20
   2277e:	f000 81fa 	beq.w	22b76 <hal_dramc_perf_tune+0x55e>
   22782:	2c15      	cmp	r4, #21
   22784:	f000 81f9 	beq.w	22b7a <hal_dramc_perf_tune+0x562>
   22788:	2c16      	cmp	r4, #22
   2278a:	f000 81f8 	beq.w	22b7e <hal_dramc_perf_tune+0x566>
   2278e:	2c17      	cmp	r4, #23
   22790:	f000 81f7 	beq.w	22b82 <hal_dramc_perf_tune+0x56a>
   22794:	2c18      	cmp	r4, #24
   22796:	f000 81f6 	beq.w	22b86 <hal_dramc_perf_tune+0x56e>
   2279a:	2c19      	cmp	r4, #25
   2279c:	f000 81f5 	beq.w	22b8a <hal_dramc_perf_tune+0x572>
   227a0:	2c1a      	cmp	r4, #26
   227a2:	f000 81f4 	beq.w	22b8e <hal_dramc_perf_tune+0x576>
   227a6:	2c1b      	cmp	r4, #27
   227a8:	f000 81f3 	beq.w	22b92 <hal_dramc_perf_tune+0x57a>
   227ac:	2c1c      	cmp	r4, #28
   227ae:	f000 81f2 	beq.w	22b96 <hal_dramc_perf_tune+0x57e>
   227b2:	2c1d      	cmp	r4, #29
   227b4:	f000 81f1 	beq.w	22b9a <hal_dramc_perf_tune+0x582>
   227b8:	2c1e      	cmp	r4, #30
   227ba:	f000 81f0 	beq.w	22b9e <hal_dramc_perf_tune+0x586>
   227be:	2c1f      	cmp	r4, #31
   227c0:	bf08      	it	eq
   227c2:	4608      	moveq	r0, r1
   227c4:	3101      	adds	r1, #1
   227c6:	2920      	cmp	r1, #32
   227c8:	d199      	bne.n	226fe <hal_dramc_perf_tune+0xe6>
   227ca:	f1bb 0f20 	cmp.w	fp, #32
   227ce:	bf16      	itet	ne
   227d0:	ebab 0b03 	subne.w	fp, fp, r3
   227d4:	210f      	moveq	r1, #15
   227d6:	f1ab 0105 	subne.w	r1, fp, #5
   227da:	f1ba 0f20 	cmp.w	sl, #32
   227de:	bf18      	it	ne
   227e0:	ebaa 0a03 	subne.w	sl, sl, r3
   227e4:	9118      	str	r1, [sp, #96]	@ 0x60
   227e6:	bf0c      	ite	eq
   227e8:	210f      	moveq	r1, #15
   227ea:	f1aa 0106 	subne.w	r1, sl, #6
   227ee:	f1b9 0f20 	cmp.w	r9, #32
   227f2:	bf18      	it	ne
   227f4:	eba9 0903 	subne.w	r9, r9, r3
   227f8:	9119      	str	r1, [sp, #100]	@ 0x64
   227fa:	bf0c      	ite	eq
   227fc:	210f      	moveq	r1, #15
   227fe:	f1a9 0107 	subne.w	r1, r9, #7
   22802:	f1b8 0f20 	cmp.w	r8, #32
   22806:	bf18      	it	ne
   22808:	eba8 0803 	subne.w	r8, r8, r3
   2280c:	911a      	str	r1, [sp, #104]	@ 0x68
   2280e:	bf0c      	ite	eq
   22810:	210f      	moveq	r1, #15
   22812:	f1a8 0108 	subne.w	r1, r8, #8
   22816:	f1be 0f20 	cmp.w	lr, #32
   2281a:	bf18      	it	ne
   2281c:	ebae 0e03 	subne.w	lr, lr, r3
   22820:	911b      	str	r1, [sp, #108]	@ 0x6c
   22822:	bf0c      	ite	eq
   22824:	210f      	moveq	r1, #15
   22826:	f1ae 0109 	subne.w	r1, lr, #9
   2282a:	f1bc 0f20 	cmp.w	ip, #32
   2282e:	bf18      	it	ne
   22830:	ebac 0c03 	subne.w	ip, ip, r3
   22834:	911c      	str	r1, [sp, #112]	@ 0x70
   22836:	bf0c      	ite	eq
   22838:	210f      	moveq	r1, #15
   2283a:	f1ac 010a 	subne.w	r1, ip, #10
   2283e:	2f20      	cmp	r7, #32
   22840:	bf18      	it	ne
   22842:	1aff      	subne	r7, r7, r3
   22844:	911d      	str	r1, [sp, #116]	@ 0x74
   22846:	bf0c      	ite	eq
   22848:	210f      	moveq	r1, #15
   2284a:	f1a7 010b 	subne.w	r1, r7, #11
   2284e:	2e20      	cmp	r6, #32
   22850:	bf18      	it	ne
   22852:	1af6      	subne	r6, r6, r3
   22854:	911e      	str	r1, [sp, #120]	@ 0x78
   22856:	bf0c      	ite	eq
   22858:	210f      	moveq	r1, #15
   2285a:	f1a6 010c 	subne.w	r1, r6, #12
   2285e:	2d20      	cmp	r5, #32
   22860:	bf18      	it	ne
   22862:	1aed      	subne	r5, r5, r3
   22864:	911f      	str	r1, [sp, #124]	@ 0x7c
   22866:	bf0c      	ite	eq
   22868:	210f      	moveq	r1, #15
   2286a:	f1a5 010d 	subne.w	r1, r5, #13
   2286e:	9120      	str	r1, [sp, #128]	@ 0x80
   22870:	9902      	ldr	r1, [sp, #8]
   22872:	2920      	cmp	r1, #32
   22874:	bf16      	itet	ne
   22876:	1ac9      	subne	r1, r1, r3
   22878:	210f      	moveq	r1, #15
   2287a:	390e      	subne	r1, #14
   2287c:	9102      	str	r1, [sp, #8]
   2287e:	9903      	ldr	r1, [sp, #12]
   22880:	2920      	cmp	r1, #32
   22882:	bf16      	itet	ne
   22884:	1ac9      	subne	r1, r1, r3
   22886:	210f      	moveq	r1, #15
   22888:	390f      	subne	r1, #15
   2288a:	9103      	str	r1, [sp, #12]
   2288c:	9904      	ldr	r1, [sp, #16]
   2288e:	2920      	cmp	r1, #32
   22890:	bf16      	itet	ne
   22892:	1ac9      	subne	r1, r1, r3
   22894:	210f      	moveq	r1, #15
   22896:	3910      	subne	r1, #16
   22898:	9104      	str	r1, [sp, #16]
   2289a:	9905      	ldr	r1, [sp, #20]
   2289c:	2920      	cmp	r1, #32
   2289e:	bf16      	itet	ne
   228a0:	1ac9      	subne	r1, r1, r3
   228a2:	210f      	moveq	r1, #15
   228a4:	3911      	subne	r1, #17
   228a6:	9105      	str	r1, [sp, #20]
   228a8:	9906      	ldr	r1, [sp, #24]
   228aa:	2920      	cmp	r1, #32
   228ac:	bf16      	itet	ne
   228ae:	1ac9      	subne	r1, r1, r3
   228b0:	210f      	moveq	r1, #15
   228b2:	3912      	subne	r1, #18
   228b4:	9106      	str	r1, [sp, #24]
   228b6:	9907      	ldr	r1, [sp, #28]
   228b8:	2920      	cmp	r1, #32
   228ba:	bf16      	itet	ne
   228bc:	1ac9      	subne	r1, r1, r3
   228be:	210f      	moveq	r1, #15
   228c0:	3913      	subne	r1, #19
   228c2:	2820      	cmp	r0, #32
   228c4:	9107      	str	r1, [sp, #28]
   228c6:	4601      	mov	r1, r0
   228c8:	bf16      	itet	ne
   228ca:	1ac1      	subne	r1, r0, r3
   228cc:	210f      	moveq	r1, #15
   228ce:	3914      	subne	r1, #20
   228d0:	9121      	str	r1, [sp, #132]	@ 0x84
   228d2:	9908      	ldr	r1, [sp, #32]
   228d4:	2920      	cmp	r1, #32
   228d6:	bf16      	itet	ne
   228d8:	1ac9      	subne	r1, r1, r3
   228da:	211f      	moveq	r1, #31
   228dc:	3902      	subne	r1, #2
   228de:	9108      	str	r1, [sp, #32]
   228e0:	9909      	ldr	r1, [sp, #36]	@ 0x24
   228e2:	2920      	cmp	r1, #32
   228e4:	bf16      	itet	ne
   228e6:	1ac9      	subne	r1, r1, r3
   228e8:	211f      	moveq	r1, #31
   228ea:	3902      	subne	r1, #2
   228ec:	9109      	str	r1, [sp, #36]	@ 0x24
   228ee:	990a      	ldr	r1, [sp, #40]	@ 0x28
   228f0:	2920      	cmp	r1, #32
   228f2:	bf16      	itet	ne
   228f4:	1ac9      	subne	r1, r1, r3
   228f6:	211f      	moveq	r1, #31
   228f8:	3902      	subne	r1, #2
   228fa:	910a      	str	r1, [sp, #40]	@ 0x28
   228fc:	990b      	ldr	r1, [sp, #44]	@ 0x2c
   228fe:	2920      	cmp	r1, #32
   22900:	bf16      	itet	ne
   22902:	1ac9      	subne	r1, r1, r3
   22904:	210f      	moveq	r1, #15
   22906:	3902      	subne	r1, #2
   22908:	910b      	str	r1, [sp, #44]	@ 0x2c
   2290a:	990c      	ldr	r1, [sp, #48]	@ 0x30
   2290c:	2920      	cmp	r1, #32
   2290e:	bf18      	it	ne
   22910:	eba1 0b03 	subne.w	fp, r1, r3
   22914:	990d      	ldr	r1, [sp, #52]	@ 0x34
   22916:	bf0c      	ite	eq
   22918:	f04f 0b0f 	moveq.w	fp, #15
   2291c:	f1ab 0b03 	subne.w	fp, fp, #3
   22920:	2920      	cmp	r1, #32
   22922:	bf18      	it	ne
   22924:	eba1 0a03 	subne.w	sl, r1, r3
   22928:	990e      	ldr	r1, [sp, #56]	@ 0x38
   2292a:	bf0c      	ite	eq
   2292c:	f04f 0a0f 	moveq.w	sl, #15
   22930:	f1aa 0a04 	subne.w	sl, sl, #4
   22934:	2920      	cmp	r1, #32
   22936:	bf18      	it	ne
   22938:	eba1 0903 	subne.w	r9, r1, r3
   2293c:	990f      	ldr	r1, [sp, #60]	@ 0x3c
   2293e:	bf0c      	ite	eq
   22940:	f04f 090f 	moveq.w	r9, #15
   22944:	f1a9 0905 	subne.w	r9, r9, #5
   22948:	2920      	cmp	r1, #32
   2294a:	bf18      	it	ne
   2294c:	eba1 0803 	subne.w	r8, r1, r3
   22950:	9910      	ldr	r1, [sp, #64]	@ 0x40
   22952:	bf0c      	ite	eq
   22954:	f04f 080f 	moveq.w	r8, #15
   22958:	f1a8 0806 	subne.w	r8, r8, #6
   2295c:	2920      	cmp	r1, #32
   2295e:	bf18      	it	ne
   22960:	eba1 0e03 	subne.w	lr, r1, r3
   22964:	9911      	ldr	r1, [sp, #68]	@ 0x44
   22966:	bf0c      	ite	eq
   22968:	f04f 0e0f 	moveq.w	lr, #15
   2296c:	f1ae 0e07 	subne.w	lr, lr, #7
   22970:	2920      	cmp	r1, #32
   22972:	bf18      	it	ne
   22974:	eba1 0c03 	subne.w	ip, r1, r3
   22978:	9912      	ldr	r1, [sp, #72]	@ 0x48
   2297a:	bf0c      	ite	eq
   2297c:	f04f 0c0f 	moveq.w	ip, #15
   22980:	f1ac 0c08 	subne.w	ip, ip, #8
   22984:	2920      	cmp	r1, #32
   22986:	bf18      	it	ne
   22988:	1acf      	subne	r7, r1, r3
   2298a:	9913      	ldr	r1, [sp, #76]	@ 0x4c
   2298c:	bf0c      	ite	eq
   2298e:	270f      	moveq	r7, #15
   22990:	3f09      	subne	r7, #9
   22992:	2920      	cmp	r1, #32
   22994:	bf18      	it	ne
   22996:	1acc      	subne	r4, r1, r3
   22998:	9914      	ldr	r1, [sp, #80]	@ 0x50
   2299a:	bf0c      	ite	eq
   2299c:	240f      	moveq	r4, #15
   2299e:	3c0a      	subne	r4, #10
   229a0:	2920      	cmp	r1, #32
   229a2:	bf18      	it	ne
   229a4:	1ace      	subne	r6, r1, r3
   229a6:	9915      	ldr	r1, [sp, #84]	@ 0x54
   229a8:	bf0c      	ite	eq
   229aa:	260f      	moveq	r6, #15
   229ac:	3e0b      	subne	r6, #11
   229ae:	2920      	cmp	r1, #32
   229b0:	bf18      	it	ne
   229b2:	1acd      	subne	r5, r1, r3
   229b4:	9916      	ldr	r1, [sp, #88]	@ 0x58
   229b6:	bf08      	it	eq
   229b8:	251f      	moveq	r5, #31
   229ba:	ea44 1406 	orr.w	r4, r4, r6, lsl #4
   229be:	bf18      	it	ne
   229c0:	3d02      	subne	r5, #2
   229c2:	2920      	cmp	r1, #32
   229c4:	bf16      	itet	ne
   229c6:	1ac9      	subne	r1, r1, r3
   229c8:	211f      	moveq	r1, #31
   229ca:	3902      	subne	r1, #2
   229cc:	2a20      	cmp	r2, #32
   229ce:	bf14      	ite	ne
   229d0:	1ad2      	subne	r2, r2, r3
   229d2:	221f      	moveq	r2, #31
   229d4:	e9dd 3018 	ldrd	r3, r0, [sp, #96]	@ 0x60
   229d8:	bf18      	it	ne
   229da:	3a02      	subne	r2, #2
   229dc:	ea43 1300 	orr.w	r3, r3, r0, lsl #4
   229e0:	981a      	ldr	r0, [sp, #104]	@ 0x68
   229e2:	ea41 1242 	orr.w	r2, r1, r2, lsl #5
   229e6:	ea43 2300 	orr.w	r3, r3, r0, lsl #8
   229ea:	981b      	ldr	r0, [sp, #108]	@ 0x6c
   229ec:	ea43 3300 	orr.w	r3, r3, r0, lsl #12
   229f0:	981c      	ldr	r0, [sp, #112]	@ 0x70
   229f2:	ea43 4300 	orr.w	r3, r3, r0, lsl #16
   229f6:	981d      	ldr	r0, [sp, #116]	@ 0x74
   229f8:	ea43 5300 	orr.w	r3, r3, r0, lsl #20
   229fc:	981e      	ldr	r0, [sp, #120]	@ 0x78
   229fe:	ea43 6300 	orr.w	r3, r3, r0, lsl #24
   22a02:	981f      	ldr	r0, [sp, #124]	@ 0x7c
   22a04:	ea43 7300 	orr.w	r3, r3, r0, lsl #28
   22a08:	9801      	ldr	r0, [sp, #4]
   22a0a:	f8c0 3400 	str.w	r3, [r0, #1024]	@ 0x400
   22a0e:	9802      	ldr	r0, [sp, #8]
   22a10:	9b20      	ldr	r3, [sp, #128]	@ 0x80
   22a12:	ea43 1300 	orr.w	r3, r3, r0, lsl #4
   22a16:	9803      	ldr	r0, [sp, #12]
   22a18:	ea43 2300 	orr.w	r3, r3, r0, lsl #8
   22a1c:	9804      	ldr	r0, [sp, #16]
   22a1e:	ea43 3300 	orr.w	r3, r3, r0, lsl #12
   22a22:	9805      	ldr	r0, [sp, #20]
   22a24:	ea43 4300 	orr.w	r3, r3, r0, lsl #16
   22a28:	9806      	ldr	r0, [sp, #24]
   22a2a:	ea43 5300 	orr.w	r3, r3, r0, lsl #20
   22a2e:	9807      	ldr	r0, [sp, #28]
   22a30:	ea43 6300 	orr.w	r3, r3, r0, lsl #24
   22a34:	9821      	ldr	r0, [sp, #132]	@ 0x84
   22a36:	ea43 7300 	orr.w	r3, r3, r0, lsl #28
   22a3a:	9801      	ldr	r0, [sp, #4]
   22a3c:	f8c0 3404 	str.w	r3, [r0, #1028]	@ 0x404
   22a40:	230f      	movs	r3, #15
   22a42:	f8c0 3408 	str.w	r3, [r0, #1032]	@ 0x408
   22a46:	e9dd 3008 	ldrd	r3, r0, [sp, #32]
   22a4a:	ea43 1340 	orr.w	r3, r3, r0, lsl #5
   22a4e:	980a      	ldr	r0, [sp, #40]	@ 0x28
   22a50:	ea43 2380 	orr.w	r3, r3, r0, lsl #10
   22a54:	9801      	ldr	r0, [sp, #4]
   22a56:	f8c0 340c 	str.w	r3, [r0, #1036]	@ 0x40c
   22a5a:	9b0b      	ldr	r3, [sp, #44]	@ 0x2c
   22a5c:	ea43 1b0b 	orr.w	fp, r3, fp, lsl #4
   22a60:	231f      	movs	r3, #31
   22a62:	ea4b 2a0a 	orr.w	sl, fp, sl, lsl #8
   22a66:	ea4a 3909 	orr.w	r9, sl, r9, lsl #12
   22a6a:	ea49 4808 	orr.w	r8, r9, r8, lsl #16
   22a6e:	ea48 5e0e 	orr.w	lr, r8, lr, lsl #20
   22a72:	ea4e 6c0c 	orr.w	ip, lr, ip, lsl #24
   22a76:	ea4c 7707 	orr.w	r7, ip, r7, lsl #28
   22a7a:	f8c0 7410 	str.w	r7, [r0, #1040]	@ 0x410
   22a7e:	f8c0 4414 	str.w	r4, [r0, #1044]	@ 0x414
   22a82:	f8c0 5418 	str.w	r5, [r0, #1048]	@ 0x418
   22a86:	f8c0 341c 	str.w	r3, [r0, #1052]	@ 0x41c
   22a8a:	9b17      	ldr	r3, [sp, #92]	@ 0x5c
   22a8c:	f8c0 2420 	str.w	r2, [r0, #1056]	@ 0x420
   22a90:	6f1b      	ldr	r3, [r3, #112]	@ 0x70
   22a92:	e9d3 2100 	ldrd	r2, r1, [r3]
   22a96:	ea42 4201 	orr.w	r2, r2, r1, lsl #16
   22a9a:	f8c0 2460 	str.w	r2, [r0, #1120]	@ 0x460
   22a9e:	e9d3 1203 	ldrd	r1, r2, [r3, #12]
   22aa2:	0412      	lsls	r2, r2, #16
   22aa4:	ea42 2201 	orr.w	r2, r2, r1, lsl #8
   22aa8:	6899      	ldr	r1, [r3, #8]
   22aaa:	430a      	orrs	r2, r1
   22aac:	6959      	ldr	r1, [r3, #20]
   22aae:	ea42 6201 	orr.w	r2, r2, r1, lsl #24
   22ab2:	f8c0 2464 	str.w	r2, [r0, #1124]	@ 0x464
   22ab6:	e9d3 1207 	ldrd	r1, r2, [r3, #28]
   22aba:	0412      	lsls	r2, r2, #16
   22abc:	ea42 2201 	orr.w	r2, r2, r1, lsl #8
   22ac0:	6999      	ldr	r1, [r3, #24]
   22ac2:	430a      	orrs	r2, r1
   22ac4:	f8c0 2468 	str.w	r2, [r0, #1128]	@ 0x468
   22ac8:	e9d3 2109 	ldrd	r2, r1, [r3, #36]	@ 0x24
   22acc:	ea42 4201 	orr.w	r2, r2, r1, lsl #16
   22ad0:	f8c0 2480 	str.w	r2, [r0, #1152]	@ 0x480
   22ad4:	e9d3 120c 	ldrd	r1, r2, [r3, #48]	@ 0x30
   22ad8:	0212      	lsls	r2, r2, #8
   22ada:	ea42 0241 	orr.w	r2, r2, r1, lsl #1
   22ade:	6ad9      	ldr	r1, [r3, #44]	@ 0x2c
   22ae0:	430a      	orrs	r2, r1
   22ae2:	6b99      	ldr	r1, [r3, #56]	@ 0x38
   22ae4:	ea42 4201 	orr.w	r2, r2, r1, lsl #16
   22ae8:	f8c0 2484 	str.w	r2, [r0, #1156]	@ 0x484
   22aec:	6bda      	ldr	r2, [r3, #60]	@ 0x3c
   22aee:	f8c0 2488 	str.w	r2, [r0, #1160]	@ 0x488
   22af2:	6c1a      	ldr	r2, [r3, #64]	@ 0x40
   22af4:	f8c0 248c 	str.w	r2, [r0, #1164]	@ 0x48c
   22af8:	6c5a      	ldr	r2, [r3, #68]	@ 0x44
   22afa:	f8c0 2490 	str.w	r2, [r0, #1168]	@ 0x490
   22afe:	6c9a      	ldr	r2, [r3, #72]	@ 0x48
   22b00:	f8c0 2494 	str.w	r2, [r0, #1172]	@ 0x494
   22b04:	6cda      	ldr	r2, [r3, #76]	@ 0x4c
   22b06:	f8c0 2498 	str.w	r2, [r0, #1176]	@ 0x498
   22b0a:	e9d3 1215 	ldrd	r1, r2, [r3, #84]	@ 0x54
   22b0e:	6d1b      	ldr	r3, [r3, #80]	@ 0x50
   22b10:	0212      	lsls	r2, r2, #8
   22b12:	ea42 1201 	orr.w	r2, r2, r1, lsl #4
   22b16:	431a      	orrs	r2, r3
   22b18:	f8c0 24a0 	str.w	r2, [r0, #1184]	@ 0x4a0
   22b1c:	b043      	add	sp, #268	@ 0x10c
   22b1e:	e8bd 8ff0 	ldmia.w	sp!, {r4, r5, r6, r7, r8, r9, sl, fp, pc}
   22b22:	2302      	movs	r3, #2
   22b24:	e587      	b.n	22636 <hal_dramc_perf_tune+0x1e>
   22b26:	910b      	str	r1, [sp, #44]	@ 0x2c
   22b28:	e64c      	b.n	227c4 <hal_dramc_perf_tune+0x1ac>
   22b2a:	910c      	str	r1, [sp, #48]	@ 0x30
   22b2c:	e64a      	b.n	227c4 <hal_dramc_perf_tune+0x1ac>
   22b2e:	910d      	str	r1, [sp, #52]	@ 0x34
   22b30:	e648      	b.n	227c4 <hal_dramc_perf_tune+0x1ac>
   22b32:	910e      	str	r1, [sp, #56]	@ 0x38
   22b34:	e646      	b.n	227c4 <hal_dramc_perf_tune+0x1ac>
   22b36:	910f      	str	r1, [sp, #60]	@ 0x3c
   22b38:	e644      	b.n	227c4 <hal_dramc_perf_tune+0x1ac>
   22b3a:	9110      	str	r1, [sp, #64]	@ 0x40
   22b3c:	e642      	b.n	227c4 <hal_dramc_perf_tune+0x1ac>
   22b3e:	9111      	str	r1, [sp, #68]	@ 0x44
   22b40:	e640      	b.n	227c4 <hal_dramc_perf_tune+0x1ac>
   22b42:	9112      	str	r1, [sp, #72]	@ 0x48
   22b44:	e63e      	b.n	227c4 <hal_dramc_perf_tune+0x1ac>
   22b46:	9113      	str	r1, [sp, #76]	@ 0x4c
   22b48:	e63c      	b.n	227c4 <hal_dramc_perf_tune+0x1ac>
   22b4a:	9114      	str	r1, [sp, #80]	@ 0x50
   22b4c:	e63a      	b.n	227c4 <hal_dramc_perf_tune+0x1ac>
   22b4e:	9108      	str	r1, [sp, #32]
   22b50:	e638      	b.n	227c4 <hal_dramc_perf_tune+0x1ac>
   22b52:	9109      	str	r1, [sp, #36]	@ 0x24
   22b54:	e636      	b.n	227c4 <hal_dramc_perf_tune+0x1ac>
   22b56:	910a      	str	r1, [sp, #40]	@ 0x28
   22b58:	e634      	b.n	227c4 <hal_dramc_perf_tune+0x1ac>
   22b5a:	9116      	str	r1, [sp, #88]	@ 0x58
   22b5c:	e632      	b.n	227c4 <hal_dramc_perf_tune+0x1ac>
   22b5e:	460a      	mov	r2, r1
   22b60:	e630      	b.n	227c4 <hal_dramc_perf_tune+0x1ac>
   22b62:	9115      	str	r1, [sp, #84]	@ 0x54
   22b64:	e62e      	b.n	227c4 <hal_dramc_perf_tune+0x1ac>
   22b66:	468b      	mov	fp, r1
   22b68:	e62c      	b.n	227c4 <hal_dramc_perf_tune+0x1ac>
   22b6a:	468a      	mov	sl, r1
   22b6c:	e62a      	b.n	227c4 <hal_dramc_perf_tune+0x1ac>
   22b6e:	4689      	mov	r9, r1
   22b70:	e628      	b.n	227c4 <hal_dramc_perf_tune+0x1ac>
   22b72:	4688      	mov	r8, r1
   22b74:	e626      	b.n	227c4 <hal_dramc_perf_tune+0x1ac>
   22b76:	468e      	mov	lr, r1
   22b78:	e624      	b.n	227c4 <hal_dramc_perf_tune+0x1ac>
   22b7a:	468c      	mov	ip, r1
   22b7c:	e622      	b.n	227c4 <hal_dramc_perf_tune+0x1ac>
   22b7e:	460f      	mov	r7, r1
   22b80:	e620      	b.n	227c4 <hal_dramc_perf_tune+0x1ac>
   22b82:	460e      	mov	r6, r1
   22b84:	e61e      	b.n	227c4 <hal_dramc_perf_tune+0x1ac>
   22b86:	460d      	mov	r5, r1
   22b88:	e61c      	b.n	227c4 <hal_dramc_perf_tune+0x1ac>
   22b8a:	9102      	str	r1, [sp, #8]
   22b8c:	e61a      	b.n	227c4 <hal_dramc_perf_tune+0x1ac>
   22b8e:	9103      	str	r1, [sp, #12]
   22b90:	e618      	b.n	227c4 <hal_dramc_perf_tune+0x1ac>
   22b92:	9104      	str	r1, [sp, #16]
   22b94:	e616      	b.n	227c4 <hal_dramc_perf_tune+0x1ac>
   22b96:	9105      	str	r1, [sp, #20]
   22b98:	e614      	b.n	227c4 <hal_dramc_perf_tune+0x1ac>
   22b9a:	9106      	str	r1, [sp, #24]
   22b9c:	e612      	b.n	227c4 <hal_dramc_perf_tune+0x1ac>
   22b9e:	9107      	str	r1, [sp, #28]
   22ba0:	e610      	b.n	227c4 <hal_dramc_perf_tune+0x1ac>
	...

00022ba4 <hal_dramc_init>:
   22ba4:	e92d 4ff0 	stmdb	sp!, {r4, r5, r6, r7, r8, r9, sl, fp, lr}
   22ba8:	2301      	movs	r3, #1
   22baa:	f891 b014 	ldrb.w	fp, [r1, #20]
   22bae:	680c      	ldr	r4, [r1, #0]
   22bb0:	b08d      	sub	sp, #52	@ 0x34
   22bb2:	fa03 f30b 	lsl.w	r3, r3, fp
   22bb6:	4682      	mov	sl, r0
   22bb8:	78e2      	ldrb	r2, [r4, #3]
   22bba:	4688      	mov	r8, r1
   22bbc:	930a      	str	r3, [sp, #40]	@ 0x28
   22bbe:	690b      	ldr	r3, [r1, #16]
   22bc0:	f894 e000 	ldrb.w	lr, [r4]
   22bc4:	fa03 f30b 	lsl.w	r3, r3, fp
   22bc8:	b1aa      	cbz	r2, 22bf6 <hal_dramc_init+0x52>
   22bca:	2a01      	cmp	r2, #1
   22bcc:	bf0c      	ite	eq
   22bce:	2108      	moveq	r1, #8
   22bd0:	2110      	movne	r1, #16
   22bd2:	f8d8 0004 	ldr.w	r0, [r8, #4]
   22bd6:	9105      	str	r1, [sp, #20]
   22bd8:	6801      	ldr	r1, [r0, #0]
   22bda:	910b      	str	r1, [sp, #44]	@ 0x2c
   22bdc:	6841      	ldr	r1, [r0, #4]
   22bde:	9101      	str	r1, [sp, #4]
   22be0:	6881      	ldr	r1, [r0, #8]
   22be2:	9102      	str	r1, [sp, #8]
   22be4:	f06f 4170 	mvn.w	r1, #4026531840	@ 0xf0000000
   22be8:	f8ca 1230 	str.w	r1, [sl, #560]	@ 0x230
   22bec:	79a5      	ldrb	r5, [r4, #6]
   22bee:	68a1      	ldr	r1, [r4, #8]
   22bf0:	b91d      	cbnz	r5, 22bfa <hal_dramc_init+0x56>
   22bf2:	3906      	subs	r1, #6
   22bf4:	e005      	b.n	22c02 <hal_dramc_init+0x5e>
   22bf6:	2104      	movs	r1, #4
   22bf8:	e7eb      	b.n	22bd2 <hal_dramc_init+0x2e>
   22bfa:	2d01      	cmp	r5, #1
   22bfc:	f040 809b 	bne.w	22d36 <hal_dramc_init+0x192>
   22c00:	3907      	subs	r1, #7
   22c02:	78a6      	ldrb	r6, [r4, #2]
   22c04:	0192      	lsls	r2, r2, #6
   22c06:	ea42 1206 	orr.w	r2, r2, r6, lsl #4
   22c0a:	7966      	ldrb	r6, [r4, #5]
   22c0c:	ea42 2286 	orr.w	r2, r2, r6, lsl #10
   22c10:	430a      	orrs	r2, r1
   22c12:	f8ca 2224 	str.w	r2, [sl, #548]	@ 0x224
   22c16:	f8d8 200c 	ldr.w	r2, [r8, #12]
   22c1a:	9200      	str	r2, [sp, #0]
   22c1c:	f892 2068 	ldrb.w	r2, [r2, #104]	@ 0x68
   22c20:	9900      	ldr	r1, [sp, #0]
   22c22:	f8ca 2228 	str.w	r2, [sl, #552]	@ 0x228
   22c26:	9a00      	ldr	r2, [sp, #0]
   22c28:	688e      	ldr	r6, [r1, #8]
   22c2a:	6852      	ldr	r2, [r2, #4]
   22c2c:	ea4e 3202 	orr.w	r2, lr, r2, lsl #12
   22c30:	ea42 4206 	orr.w	r2, r2, r6, lsl #16
   22c34:	68ce      	ldr	r6, [r1, #12]
   22c36:	ea42 4246 	orr.w	r2, r2, r6, lsl #17
   22c3a:	690e      	ldr	r6, [r1, #16]
   22c3c:	ea42 4286 	orr.w	r2, r2, r6, lsl #18
   22c40:	694e      	ldr	r6, [r1, #20]
   22c42:	ea42 46c6 	orr.w	r6, r2, r6, lsl #19
   22c46:	698a      	ldr	r2, [r1, #24]
   22c48:	ea46 5642 	orr.w	r6, r6, r2, lsl #21
   22c4c:	69ca      	ldr	r2, [r1, #28]
   22c4e:	ea46 5682 	orr.w	r6, r6, r2, lsl #22
   22c52:	6a0a      	ldr	r2, [r1, #32]
   22c54:	ea46 7282 	orr.w	r2, r6, r2, lsl #30
   22c58:	9e0a      	ldr	r6, [sp, #40]	@ 0x28
   22c5a:	ea42 2206 	orr.w	r2, r2, r6, lsl #8
   22c5e:	2610      	movs	r6, #16
   22c60:	fa06 f505 	lsl.w	r5, r6, r5
   22c64:	4315      	orrs	r5, r2
   22c66:	6a4a      	ldr	r2, [r1, #36]	@ 0x24
   22c68:	f8ca 5004 	str.w	r5, [sl, #4]
   22c6c:	6b0d      	ldr	r5, [r1, #48]	@ 0x30
   22c6e:	9203      	str	r2, [sp, #12]
   22c70:	9504      	str	r5, [sp, #16]
   22c72:	6b4d      	ldr	r5, [r1, #52]	@ 0x34
   22c74:	6a8a      	ldr	r2, [r1, #40]	@ 0x28
   22c76:	9507      	str	r5, [sp, #28]
   22c78:	6b8d      	ldr	r5, [r1, #56]	@ 0x38
   22c7a:	9206      	str	r2, [sp, #24]
   22c7c:	9508      	str	r5, [sp, #32]
   22c7e:	6aca      	ldr	r2, [r1, #44]	@ 0x2c
   22c80:	e9d1 7c0f 	ldrd	r7, ip, [r1, #60]	@ 0x3c
   22c84:	6905      	ldr	r5, [r0, #16]
   22c86:	0092      	lsls	r2, r2, #2
   22c88:	9e0a      	ldr	r6, [sp, #40]	@ 0x28
   22c8a:	6941      	ldr	r1, [r0, #20]
   22c8c:	f106 39ff 	add.w	r9, r6, #4294967295	@ 0xffffffff
   22c90:	fa25 f60b 	lsr.w	r6, r5, fp
   22c94:	ea15 0f09 	tst.w	r5, r9
   22c98:	6945      	ldr	r5, [r0, #20]
   22c9a:	bf18      	it	ne
   22c9c:	3601      	addne	r6, #1
   22c9e:	ea11 0f09 	tst.w	r1, r9
   22ca2:	9906      	ldr	r1, [sp, #24]
   22ca4:	fa25 f50b 	lsr.w	r5, r5, fp
   22ca8:	ea42 0241 	orr.w	r2, r2, r1, lsl #1
   22cac:	9903      	ldr	r1, [sp, #12]
   22cae:	bf18      	it	ne
   22cb0:	3501      	addne	r5, #1
   22cb2:	430a      	orrs	r2, r1
   22cb4:	9904      	ldr	r1, [sp, #16]
   22cb6:	ea42 02c1 	orr.w	r2, r2, r1, lsl #3
   22cba:	9907      	ldr	r1, [sp, #28]
   22cbc:	ea42 1201 	orr.w	r2, r2, r1, lsl #4
   22cc0:	9908      	ldr	r1, [sp, #32]
   22cc2:	ea42 1241 	orr.w	r2, r2, r1, lsl #5
   22cc6:	ea42 1287 	orr.w	r2, r2, r7, lsl #6
   22cca:	ea42 2c0c 	orr.w	ip, r2, ip, lsl #8
   22cce:	9a00      	ldr	r2, [sp, #0]
   22cd0:	6c52      	ldr	r2, [r2, #68]	@ 0x44
   22cd2:	ea4c 6cc2 	orr.w	ip, ip, r2, lsl #27
   22cd6:	9a00      	ldr	r2, [sp, #0]
   22cd8:	6c92      	ldr	r2, [r2, #72]	@ 0x48
   22cda:	ea4c 7c02 	orr.w	ip, ip, r2, lsl #28
   22cde:	9a00      	ldr	r2, [sp, #0]
   22ce0:	6cd2      	ldr	r2, [r2, #76]	@ 0x4c
   22ce2:	ea4c 7242 	orr.w	r2, ip, r2, lsl #29
   22ce6:	ea42 3206 	orr.w	r2, r2, r6, lsl #12
   22cea:	ea42 5205 	orr.w	r2, r2, r5, lsl #20
   22cee:	f8ca 2008 	str.w	r2, [sl, #8]
   22cf2:	6a42      	ldr	r2, [r0, #36]	@ 0x24
   22cf4:	4611      	mov	r1, r2
   22cf6:	f1ae 0202 	sub.w	r2, lr, #2
   22cfa:	b2d2      	uxtb	r2, r2
   22cfc:	9206      	str	r2, [sp, #24]
   22cfe:	9a05      	ldr	r2, [sp, #20]
   22d00:	2a08      	cmp	r2, #8
   22d02:	d11d      	bne.n	22d40 <hal_dramc_init+0x19c>
   22d04:	f1be 0f02 	cmp.w	lr, #2
   22d08:	bf0c      	ite	eq
   22d0a:	2203      	moveq	r2, #3
   22d0c:	2200      	movne	r2, #0
   22d0e:	f1be 0f02 	cmp.w	lr, #2
   22d12:	7924      	ldrb	r4, [r4, #4]
   22d14:	9203      	str	r2, [sp, #12]
   22d16:	f000 80ee 	beq.w	22ef6 <hal_dramc_init+0x352>
   22d1a:	f1be 0f03 	cmp.w	lr, #3
   22d1e:	f040 80ed 	bne.w	22efc <hal_dramc_init+0x358>
   22d22:	9a01      	ldr	r2, [sp, #4]
   22d24:	2a04      	cmp	r2, #4
   22d26:	f240 80ec 	bls.w	22f02 <hal_dramc_init+0x35e>
   22d2a:	2a0b      	cmp	r2, #11
   22d2c:	d813      	bhi.n	22d56 <hal_dramc_init+0x1b2>
   22d2e:	f1a2 0c04 	sub.w	ip, r2, #4
   22d32:	2700      	movs	r7, #0
   22d34:	e013      	b.n	22d5e <hal_dramc_init+0x1ba>
   22d36:	2d03      	cmp	r5, #3
   22d38:	f47f af5b 	bne.w	22bf2 <hal_dramc_init+0x4e>
   22d3c:	3908      	subs	r1, #8
   22d3e:	e760      	b.n	22c02 <hal_dramc_init+0x5e>
   22d40:	9a05      	ldr	r2, [sp, #20]
   22d42:	2a04      	cmp	r2, #4
   22d44:	d105      	bne.n	22d52 <hal_dramc_init+0x1ae>
   22d46:	9a06      	ldr	r2, [sp, #24]
   22d48:	2a02      	cmp	r2, #2
   22d4a:	bf34      	ite	cc
   22d4c:	2202      	movcc	r2, #2
   22d4e:	2200      	movcs	r2, #0
   22d50:	e7dd      	b.n	22d0e <hal_dramc_init+0x16a>
   22d52:	2200      	movs	r2, #0
   22d54:	e7db      	b.n	22d0e <hal_dramc_init+0x16a>
   22d56:	9a01      	ldr	r2, [sp, #4]
   22d58:	2701      	movs	r7, #1
   22d5a:	f1a2 0c0c 	sub.w	ip, r2, #12
   22d5e:	f8d8 2008 	ldr.w	r2, [r8, #8]
   22d62:	f1be 0f02 	cmp.w	lr, #2
   22d66:	6dd5      	ldr	r5, [r2, #92]	@ 0x5c
   22d68:	f040 80cf 	bne.w	22f0a <hal_dramc_init+0x366>
   22d6c:	1eae      	subs	r6, r5, #2
   22d6e:	2e06      	cmp	r6, #6
   22d70:	f200 80dd 	bhi.w	22f2e <hal_dramc_init+0x38a>
   22d74:	1e6e      	subs	r6, r5, #1
   22d76:	f04f 0800 	mov.w	r8, #0
   22d7a:	ea41 04c4 	orr.w	r4, r1, r4, lsl #3
   22d7e:	9903      	ldr	r1, [sp, #12]
   22d80:	f1be 0f03 	cmp.w	lr, #3
   22d84:	ea44 0401 	orr.w	r4, r4, r1
   22d88:	9902      	ldr	r1, [sp, #8]
   22d8a:	ea44 0487 	orr.w	r4, r4, r7, lsl #2
   22d8e:	6ac7      	ldr	r7, [r0, #44]	@ 0x2c
   22d90:	ea44 140c 	orr.w	r4, r4, ip, lsl #4
   22d94:	ea44 2446 	orr.w	r4, r4, r6, lsl #9
   22d98:	bf14      	ite	ne
   22d9a:	2600      	movne	r6, #0
   22d9c:	2603      	moveq	r6, #3
   22d9e:	ea44 3408 	orr.w	r4, r4, r8, lsl #12
   22da2:	f8ca 4034 	str.w	r4, [sl, #52]	@ 0x34
   22da6:	6a84      	ldr	r4, [r0, #40]	@ 0x28
   22da8:	ea44 04c1 	orr.w	r4, r4, r1, lsl #3
   22dac:	ea44 1446 	orr.w	r4, r4, r6, lsl #5
   22db0:	f8ca 4038 	str.w	r4, [sl, #56]	@ 0x38
   22db4:	f040 80c1 	bne.w	22f3a <hal_dramc_init+0x396>
   22db8:	990b      	ldr	r1, [sp, #44]	@ 0x2c
   22dba:	1f4e      	subs	r6, r1, #5
   22dbc:	9904      	ldr	r1, [sp, #16]
   22dbe:	fab1 f481 	clz	r4, r1
   22dc2:	0964      	lsrs	r4, r4, #5
   22dc4:	0264      	lsls	r4, r4, #9
   22dc6:	990b      	ldr	r1, [sp, #44]	@ 0x2c
   22dc8:	ea44 04c6 	orr.w	r4, r4, r6, lsl #3
   22dcc:	433c      	orrs	r4, r7
   22dce:	f8ca 403c 	str.w	r4, [sl, #60]	@ 0x3c
   22dd2:	68c4      	ldr	r4, [r0, #12]
   22dd4:	1866      	adds	r6, r4, r1
   22dd6:	9901      	ldr	r1, [sp, #4]
   22dd8:	ea16 0f09 	tst.w	r6, r9
   22ddc:	440c      	add	r4, r1
   22dde:	fa26 f00b 	lsr.w	r0, r6, fp
   22de2:	9902      	ldr	r1, [sp, #8]
   22de4:	fa24 f70b 	lsr.w	r7, r4, fp
   22de8:	bf18      	it	ne
   22dea:	3001      	addne	r0, #1
   22dec:	ea14 0f09 	tst.w	r4, r9
   22df0:	fa21 f60b 	lsr.w	r6, r1, fp
   22df4:	bf18      	it	ne
   22df6:	3701      	addne	r7, #1
   22df8:	ea11 0f09 	tst.w	r1, r9
   22dfc:	9906      	ldr	r1, [sp, #24]
   22dfe:	bf18      	it	ne
   22e00:	3601      	addne	r6, #1
   22e02:	2901      	cmp	r1, #1
   22e04:	f200 80a1 	bhi.w	22f4a <hal_dramc_init+0x3a6>
   22e08:	ea15 0f09 	tst.w	r5, r9
   22e0c:	fa25 f40b 	lsr.w	r4, r5, fp
   22e10:	d000      	beq.n	22e14 <hal_dramc_init+0x270>
   22e12:	3401      	adds	r4, #1
   22e14:	f8d2 c024 	ldr.w	ip, [r2, #36]	@ 0x24
   22e18:	fbbc f5f3 	udiv	r5, ip, r3
   22e1c:	fb03 cc15 	mls	ip, r3, r5, ip
   22e20:	f1bc 0f00 	cmp.w	ip, #0
   22e24:	d000      	beq.n	22e28 <hal_dramc_init+0x284>
   22e26:	3501      	adds	r5, #1
   22e28:	9905      	ldr	r1, [sp, #20]
   22e2a:	f1be 0f02 	cmp.w	lr, #2
   22e2e:	ea40 1047 	orr.w	r0, r0, r7, lsl #5
   22e32:	ea4f 0151 	mov.w	r1, r1, lsr #1
   22e36:	ea40 2086 	orr.w	r0, r0, r6, lsl #10
   22e3a:	bf08      	it	eq
   22e3c:	f1a1 0c02 	subeq.w	ip, r1, #2
   22e40:	9109      	str	r1, [sp, #36]	@ 0x24
   22e42:	bf08      	it	eq
   22e44:	9902      	ldreq	r1, [sp, #8]
   22e46:	ea40 5004 	orr.w	r0, r0, r4, lsl #20
   22e4a:	bf0b      	itete	eq
   22e4c:	fa2c fc0b 	lsreq.w	ip, ip, fp
   22e50:	9902      	ldrne	r1, [sp, #8]
   22e52:	448c      	addeq	ip, r1
   22e54:	186d      	addne	r5, r5, r1
   22e56:	bf08      	it	eq
   22e58:	4465      	addeq	r5, ip
   22e5a:	ea40 6045 	orr.w	r0, r0, r5, lsl #25
   22e5e:	f8ca 0030 	str.w	r0, [sl, #48]	@ 0x30
   22e62:	6810      	ldr	r0, [r2, #0]
   22e64:	fbb0 f1f3 	udiv	r1, r0, r3
   22e68:	fb03 0011 	mls	r0, r3, r1, r0
   22e6c:	9102      	str	r1, [sp, #8]
   22e6e:	b110      	cbz	r0, 22e76 <hal_dramc_init+0x2d2>
   22e70:	4608      	mov	r0, r1
   22e72:	3001      	adds	r0, #1
   22e74:	9002      	str	r0, [sp, #8]
   22e76:	6850      	ldr	r0, [r2, #4]
   22e78:	fbb0 f6f3 	udiv	r6, r0, r3
   22e7c:	fb03 0016 	mls	r0, r3, r6, r0
   22e80:	2800      	cmp	r0, #0
   22e82:	d064      	beq.n	22f4e <hal_dramc_init+0x3aa>
   22e84:	3ec7      	subs	r6, #199	@ 0xc7
   22e86:	9900      	ldr	r1, [sp, #0]
   22e88:	e9d1 4015 	ldrd	r4, r0, [r1, #84]	@ 0x54
   22e8c:	0740      	lsls	r0, r0, #29
   22e8e:	ea40 7004 	orr.w	r0, r0, r4, lsl #28
   22e92:	ea40 2606 	orr.w	r6, r0, r6, lsl #8
   22e96:	f89d 0008 	ldrb.w	r0, [sp, #8]
   22e9a:	4330      	orrs	r0, r6
   22e9c:	f040 7080 	orr.w	r0, r0, #16777216	@ 0x1000000
   22ea0:	f8ca 0010 	str.w	r0, [sl, #16]
   22ea4:	6910      	ldr	r0, [r2, #16]
   22ea6:	fbb0 f1f3 	udiv	r1, r0, r3
   22eaa:	fb03 0011 	mls	r0, r3, r1, r0
   22eae:	9103      	str	r1, [sp, #12]
   22eb0:	b110      	cbz	r0, 22eb8 <hal_dramc_init+0x314>
   22eb2:	4608      	mov	r0, r1
   22eb4:	3001      	adds	r0, #1
   22eb6:	9003      	str	r0, [sp, #12]
   22eb8:	6990      	ldr	r0, [r2, #24]
   22eba:	fbb0 f1f3 	udiv	r1, r0, r3
   22ebe:	fb03 0011 	mls	r0, r3, r1, r0
   22ec2:	9106      	str	r1, [sp, #24]
   22ec4:	b110      	cbz	r0, 22ecc <hal_dramc_init+0x328>
   22ec6:	4608      	mov	r0, r1
   22ec8:	3001      	adds	r0, #1
   22eca:	9006      	str	r0, [sp, #24]
   22ecc:	68d0      	ldr	r0, [r2, #12]
   22ece:	fbb0 f1f3 	udiv	r1, r0, r3
   22ed2:	fb03 0011 	mls	r0, r3, r1, r0
   22ed6:	9104      	str	r1, [sp, #16]
   22ed8:	b110      	cbz	r0, 22ee0 <hal_dramc_init+0x33c>
   22eda:	4608      	mov	r0, r1
   22edc:	3001      	adds	r0, #1
   22ede:	9004      	str	r0, [sp, #16]
   22ee0:	e9d2 6411 	ldrd	r6, r4, [r2, #68]	@ 0x44
   22ee4:	42a6      	cmp	r6, r4
   22ee6:	d934      	bls.n	22f52 <hal_dramc_init+0x3ae>
   22ee8:	fbb6 f0f3 	udiv	r0, r6, r3
   22eec:	fb03 6610 	mls	r6, r3, r0, r6
   22ef0:	b3ae      	cbz	r6, 22f5e <hal_dramc_init+0x3ba>
   22ef2:	3001      	adds	r0, #1
   22ef4:	e033      	b.n	22f5e <hal_dramc_init+0x3ba>
   22ef6:	f8dd c004 	ldr.w	ip, [sp, #4]
   22efa:	e71a      	b.n	22d32 <hal_dramc_init+0x18e>
   22efc:	2700      	movs	r7, #0
   22efe:	46bc      	mov	ip, r7
   22f00:	e72d      	b.n	22d5e <hal_dramc_init+0x1ba>
   22f02:	2700      	movs	r7, #0
   22f04:	f04f 0c01 	mov.w	ip, #1
   22f08:	e729      	b.n	22d5e <hal_dramc_init+0x1ba>
   22f0a:	f1be 0f03 	cmp.w	lr, #3
   22f0e:	d112      	bne.n	22f36 <hal_dramc_init+0x392>
   22f10:	2d04      	cmp	r5, #4
   22f12:	d90e      	bls.n	22f32 <hal_dramc_init+0x38e>
   22f14:	1f6e      	subs	r6, r5, #5
   22f16:	2e03      	cmp	r6, #3
   22f18:	d803      	bhi.n	22f22 <hal_dramc_init+0x37e>
   22f1a:	1f2e      	subs	r6, r5, #4
   22f1c:	f04f 0801 	mov.w	r8, #1
   22f20:	e72b      	b.n	22d7a <hal_dramc_init+0x1d6>
   22f22:	f1a5 0609 	sub.w	r6, r5, #9
   22f26:	2e05      	cmp	r6, #5
   22f28:	d805      	bhi.n	22f36 <hal_dramc_init+0x392>
   22f2a:	086e      	lsrs	r6, r5, #1
   22f2c:	e7f6      	b.n	22f1c <hal_dramc_init+0x378>
   22f2e:	2600      	movs	r6, #0
   22f30:	e721      	b.n	22d76 <hal_dramc_init+0x1d2>
   22f32:	2601      	movs	r6, #1
   22f34:	e7f2      	b.n	22f1c <hal_dramc_init+0x378>
   22f36:	2600      	movs	r6, #0
   22f38:	e7f0      	b.n	22f1c <hal_dramc_init+0x378>
   22f3a:	f1be 0f02 	cmp.w	lr, #2
   22f3e:	f04f 0600 	mov.w	r6, #0
   22f42:	f47f af3b 	bne.w	22dbc <hal_dramc_init+0x218>
   22f46:	4634      	mov	r4, r6
   22f48:	e73c      	b.n	22dc4 <hal_dramc_init+0x220>
   22f4a:	2400      	movs	r4, #0
   22f4c:	e762      	b.n	22e14 <hal_dramc_init+0x270>
   22f4e:	3ec8      	subs	r6, #200	@ 0xc8
   22f50:	e799      	b.n	22e86 <hal_dramc_init+0x2e2>
   22f52:	fbb4 f0f3 	udiv	r0, r4, r3
   22f56:	fb03 4410 	mls	r4, r3, r0, r4
   22f5a:	2c00      	cmp	r4, #0
   22f5c:	d1c9      	bne.n	22ef2 <hal_dramc_init+0x34e>
   22f5e:	9900      	ldr	r1, [sp, #0]
   22f60:	6d17      	ldr	r7, [r2, #80]	@ 0x50
   22f62:	6dcc      	ldr	r4, [r1, #92]	@ 0x5c
   22f64:	9903      	ldr	r1, [sp, #12]
   22f66:	fa27 f60b 	lsr.w	r6, r7, fp
   22f6a:	05e4      	lsls	r4, r4, #23
   22f6c:	ea17 0f09 	tst.w	r7, r9
   22f70:	ea44 3545 	orr.w	r5, r4, r5, lsl #13
   22f74:	bf18      	it	ne
   22f76:	3601      	addne	r6, #1
   22f78:	010c      	lsls	r4, r1, #4
   22f7a:	9906      	ldr	r1, [sp, #24]
   22f7c:	f404 74f8 	and.w	r4, r4, #496	@ 0x1f0
   22f80:	432c      	orrs	r4, r5
   22f82:	024d      	lsls	r5, r1, #9
   22f84:	9904      	ldr	r1, [sp, #16]
   22f86:	f405 55f0 	and.w	r5, r5, #7680	@ 0x1e00
   22f8a:	4325      	orrs	r5, r4
   22f8c:	f001 040f 	and.w	r4, r1, #15
   22f90:	4325      	orrs	r5, r4
   22f92:	ea45 4540 	orr.w	r5, r5, r0, lsl #17
   22f96:	6950      	ldr	r0, [r2, #20]
   22f98:	fbb0 fcf3 	udiv	ip, r0, r3
   22f9c:	ea45 6506 	orr.w	r5, r5, r6, lsl #24
   22fa0:	fb03 001c 	mls	r0, r3, ip, r0
   22fa4:	f8ca 5014 	str.w	r5, [sl, #20]
   22fa8:	b108      	cbz	r0, 22fae <hal_dramc_init+0x40a>
   22faa:	f10c 0c01 	add.w	ip, ip, #1
   22fae:	6b14      	ldr	r4, [r2, #48]	@ 0x30
   22fb0:	fbb4 f0f3 	udiv	r0, r4, r3
   22fb4:	fb03 4410 	mls	r4, r3, r0, r4
   22fb8:	b104      	cbz	r4, 22fbc <hal_dramc_init+0x418>
   22fba:	3001      	adds	r0, #1
   22fbc:	e9dd 1403 	ldrd	r1, r4, [sp, #12]
   22fc0:	190c      	adds	r4, r1, r4
   22fc2:	4284      	cmp	r4, r0
   22fc4:	bf38      	it	cc
   22fc6:	4604      	movcc	r4, r0
   22fc8:	6890      	ldr	r0, [r2, #8]
   22fca:	fbb0 f5f3 	udiv	r5, r0, r3
   22fce:	fb03 0015 	mls	r0, r3, r5, r0
   22fd2:	b900      	cbnz	r0, 22fd6 <hal_dramc_init+0x432>
   22fd4:	3d01      	subs	r5, #1
   22fd6:	6ad1      	ldr	r1, [r2, #44]	@ 0x2c
   22fd8:	69d0      	ldr	r0, [r2, #28]
   22fda:	ea11 0f09 	tst.w	r1, r9
   22fde:	fa21 f80b 	lsr.w	r8, r1, fp
   22fe2:	fa20 f70b 	lsr.w	r7, r0, fp
   22fe6:	9107      	str	r1, [sp, #28]
   22fe8:	bf18      	it	ne
   22fea:	f108 0801 	addne.w	r8, r8, #1
   22fee:	9909      	ldr	r1, [sp, #36]	@ 0x24
   22ff0:	ea10 0f09 	tst.w	r0, r9
   22ff4:	f101 0102 	add.w	r1, r1, #2
   22ff8:	bf18      	it	ne
   22ffa:	3701      	addne	r7, #1
   22ffc:	f1be 0f02 	cmp.w	lr, #2
   23000:	9108      	str	r1, [sp, #32]
   23002:	d106      	bne.n	23012 <hal_dramc_init+0x46e>
   23004:	ea19 0f01 	tst.w	r9, r1
   23008:	fa21 f00b 	lsr.w	r0, r1, fp
   2300c:	d011      	beq.n	23032 <hal_dramc_init+0x48e>
   2300e:	3001      	adds	r0, #1
   23010:	e00f      	b.n	23032 <hal_dramc_init+0x48e>
   23012:	f1be 0f03 	cmp.w	lr, #3
   23016:	f040 80e2 	bne.w	231de <hal_dramc_init+0x63a>
   2301a:	9e01      	ldr	r6, [sp, #4]
   2301c:	990b      	ldr	r1, [sp, #44]	@ 0x2c
   2301e:	3602      	adds	r6, #2
   23020:	1a76      	subs	r6, r6, r1
   23022:	9909      	ldr	r1, [sp, #36]	@ 0x24
   23024:	440e      	add	r6, r1
   23026:	ea16 0f09 	tst.w	r6, r9
   2302a:	fa26 f00b 	lsr.w	r0, r6, fp
   2302e:	d0ee      	beq.n	2300e <hal_dramc_init+0x46a>
   23030:	3002      	adds	r0, #2
   23032:	6c11      	ldr	r1, [r2, #64]	@ 0x40
   23034:	fbb1 f6f3 	udiv	r6, r1, r3
   23038:	fb03 1116 	mls	r1, r3, r6, r1
   2303c:	b101      	cbz	r1, 23040 <hal_dramc_init+0x49c>
   2303e:	3601      	adds	r6, #1
   23040:	ea4c 1404 	orr.w	r4, ip, r4, lsl #4
   23044:	f1be 0f02 	cmp.w	lr, #2
   23048:	ea4f 2c85 	mov.w	ip, r5, lsl #10
   2304c:	f40c 5c70 	and.w	ip, ip, #15360	@ 0x3c00
   23050:	ea44 040c 	orr.w	r4, r4, ip
   23054:	ea4f 4c47 	mov.w	ip, r7, lsl #17
   23058:	ea44 3888 	orr.w	r8, r4, r8, lsl #14
   2305c:	f40c 2c60 	and.w	ip, ip, #917504	@ 0xe0000
   23060:	ea4f 5400 	mov.w	r4, r0, lsl #20
   23064:	ea48 080c 	orr.w	r8, r8, ip
   23068:	f404 0470 	and.w	r4, r4, #15728640	@ 0xf00000
   2306c:	ea48 0804 	orr.w	r8, r8, r4
   23070:	ea4f 6406 	mov.w	r4, r6, lsl #24
   23074:	f004 54f8 	and.w	r4, r4, #520093696	@ 0x1f000000
   23078:	ea48 0404 	orr.w	r4, r8, r4
   2307c:	f8ca 4018 	str.w	r4, [sl, #24]
   23080:	f000 80af 	beq.w	231e2 <hal_dramc_init+0x63e>
   23084:	9900      	ldr	r1, [sp, #0]
   23086:	f1be 0f03 	cmp.w	lr, #3
   2308a:	6e09      	ldr	r1, [r1, #96]	@ 0x60
   2308c:	9100      	str	r1, [sp, #0]
   2308e:	f040 80bf 	bne.w	23210 <hal_dramc_init+0x66c>
   23092:	4963      	ldr	r1, [pc, #396]	@ (23220 <hal_dramc_init+0x67c>)
   23094:	4c63      	ldr	r4, [pc, #396]	@ (23224 <hal_dramc_init+0x680>)
   23096:	f8d2 c020 	ldr.w	ip, [r2, #32]
   2309a:	fbb1 f8f3 	udiv	r8, r1, r3
   2309e:	f242 7110 	movw	r1, #10000	@ 0x2710
   230a2:	ea4f 2898 	mov.w	r8, r8, lsr #10
   230a6:	fbb4 f4f3 	udiv	r4, r4, r3
   230aa:	fbb1 f3f3 	udiv	r3, r1, r3
   230ae:	9902      	ldr	r1, [sp, #8]
   230b0:	0aa4      	lsrs	r4, r4, #10
   230b2:	f108 0801 	add.w	r8, r8, #1
   230b6:	440b      	add	r3, r1
   230b8:	3401      	adds	r4, #1
   230ba:	09db      	lsrs	r3, r3, #7
   230bc:	3301      	adds	r3, #1
   230be:	021b      	lsls	r3, r3, #8
   230c0:	9900      	ldr	r1, [sp, #0]
   230c2:	f8d2 e038 	ldr.w	lr, [r2, #56]	@ 0x38
   230c6:	0976      	lsrs	r6, r6, #5
   230c8:	ea43 130c 	orr.w	r3, r3, ip, lsl #4
   230cc:	092d      	lsrs	r5, r5, #4
   230ce:	430b      	orrs	r3, r1
   230d0:	9906      	ldr	r1, [sp, #24]
   230d2:	08ff      	lsrs	r7, r7, #3
   230d4:	ea43 3304 	orr.w	r3, r3, r4, lsl #12
   230d8:	6b54      	ldr	r4, [r2, #52]	@ 0x34
   230da:	0900      	lsrs	r0, r0, #4
   230dc:	ea43 5388 	orr.w	r3, r3, r8, lsl #22
   230e0:	ea14 0f09 	tst.w	r4, r9
   230e4:	fa24 fc0b 	lsr.w	ip, r4, fp
   230e8:	fa2e f40b 	lsr.w	r4, lr, fp
   230ec:	f8ca 301c 	str.w	r3, [sl, #28]
   230f0:	ea4f 1111 	mov.w	r1, r1, lsr #4
   230f4:	9b03      	ldr	r3, [sp, #12]
   230f6:	bf18      	it	ne
   230f8:	f10c 0c01 	addne.w	ip, ip, #1
   230fc:	ea1e 0f09 	tst.w	lr, r9
   23100:	f8d2 e03c 	ldr.w	lr, [r2, #60]	@ 0x3c
   23104:	ea4f 1853 	mov.w	r8, r3, lsr #5
   23108:	9b02      	ldr	r3, [sp, #8]
   2310a:	fa2e f20b 	lsr.w	r2, lr, fp
   2310e:	bf18      	it	ne
   23110:	3401      	addne	r4, #1
   23112:	0a1b      	lsrs	r3, r3, #8
   23114:	ea1e 0f09 	tst.w	lr, r9
   23118:	9300      	str	r3, [sp, #0]
   2311a:	bf18      	it	ne
   2311c:	3201      	addne	r2, #1
   2311e:	9b05      	ldr	r3, [sp, #20]
   23120:	fa23 fe0b 	lsr.w	lr, r3, fp
   23124:	9b07      	ldr	r3, [sp, #28]
   23126:	4573      	cmp	r3, lr
   23128:	d207      	bcs.n	2313a <hal_dramc_init+0x596>
   2312a:	ebae 0e03 	sub.w	lr, lr, r3
   2312e:	fa2e f20b 	lsr.w	r2, lr, fp
   23132:	ea1e 0f09 	tst.w	lr, r9
   23136:	bf18      	it	ne
   23138:	3201      	addne	r2, #1
   2313a:	9b00      	ldr	r3, [sp, #0]
   2313c:	ea4f 0988 	mov.w	r9, r8, lsl #2
   23140:	02c9      	lsls	r1, r1, #11
   23142:	029b      	lsls	r3, r3, #10
   23144:	f009 0904 	and.w	r9, r9, #4
   23148:	01ed      	lsls	r5, r5, #7
   2314a:	f403 6380 	and.w	r3, r3, #1024	@ 0x400
   2314e:	023f      	lsls	r7, r7, #8
   23150:	b2ed      	uxtb	r5, r5
   23152:	ea49 0903 	orr.w	r9, r9, r3
   23156:	f401 6300 	and.w	r3, r1, #2048	@ 0x800
   2315a:	f407 7780 	and.w	r7, r7, #256	@ 0x100
   2315e:	0240      	lsls	r0, r0, #9
   23160:	ea49 0903 	orr.w	r9, r9, r3
   23164:	00f6      	lsls	r6, r6, #3
   23166:	f400 7000 	and.w	r0, r0, #512	@ 0x200
   2316a:	9b04      	ldr	r3, [sp, #16]
   2316c:	ea49 0505 	orr.w	r5, r9, r5
   23170:	f006 0608 	and.w	r6, r6, #8
   23174:	f3c3 1300 	ubfx	r3, r3, #4, #1
   23178:	432f      	orrs	r7, r5
   2317a:	4338      	orrs	r0, r7
   2317c:	4306      	orrs	r6, r0
   2317e:	ea46 3c8c 	orr.w	ip, r6, ip, lsl #14
   23182:	ea4c 4444 	orr.w	r4, ip, r4, lsl #17
   23186:	ea44 5202 	orr.w	r2, r4, r2, lsl #20
   2318a:	f8ca 2020 	str.w	r2, [sl, #32]
   2318e:	f8ca 3090 	str.w	r3, [sl, #144]	@ 0x90
   23192:	9b0a      	ldr	r3, [sp, #40]	@ 0x28
   23194:	2b01      	cmp	r3, #1
   23196:	bf1e      	ittt	ne
   23198:	9b09      	ldrne	r3, [sp, #36]	@ 0x24
   2319a:	3303      	addne	r3, #3
   2319c:	9308      	strne	r3, [sp, #32]
   2319e:	9b08      	ldr	r3, [sp, #32]
   231a0:	f8ca 3094 	str.w	r3, [sl, #148]	@ 0x94
   231a4:	f64f 73ff 	movw	r3, #65535	@ 0xffff
   231a8:	f8ca 30cc 	str.w	r3, [sl, #204]	@ 0xcc
   231ac:	f44f 63e0 	mov.w	r3, #1792	@ 0x700
   231b0:	f8ca 300c 	str.w	r3, [sl, #12]
   231b4:	2301      	movs	r3, #1
   231b6:	f8ca 3000 	str.w	r3, [sl]
   231ba:	f8da 3000 	ldr.w	r3, [sl]
   231be:	07db      	lsls	r3, r3, #31
   231c0:	d5fb      	bpl.n	231ba <hal_dramc_init+0x616>
   231c2:	f44f 63c0 	mov.w	r3, #1536	@ 0x600
   231c6:	f8ca 300c 	str.w	r3, [sl, #12]
   231ca:	f8da 300c 	ldr.w	r3, [sl, #12]
   231ce:	f3c3 030a 	ubfx	r3, r3, #0, #11
   231d2:	f5b3 6fc0 	cmp.w	r3, #1536	@ 0x600
   231d6:	d1f8      	bne.n	231ca <hal_dramc_init+0x626>
   231d8:	b00d      	add	sp, #52	@ 0x34
   231da:	e8bd 8ff0 	ldmia.w	sp!, {r4, r5, r6, r7, r8, r9, sl, fp, pc}
   231de:	2000      	movs	r0, #0
   231e0:	e727      	b.n	23032 <hal_dramc_init+0x48e>
   231e2:	6a11      	ldr	r1, [r2, #32]
   231e4:	fbb1 fcf3 	udiv	ip, r1, r3
   231e8:	fb03 111c 	mls	r1, r3, ip, r1
   231ec:	b109      	cbz	r1, 231f2 <hal_dramc_init+0x64e>
   231ee:	f10c 0c01 	add.w	ip, ip, #1
   231f2:	2102      	movs	r1, #2
   231f4:	9100      	str	r1, [sp, #0]
   231f6:	4c0a      	ldr	r4, [pc, #40]	@ (23220 <hal_dramc_init+0x67c>)
   231f8:	490b      	ldr	r1, [pc, #44]	@ (23228 <hal_dramc_init+0x684>)
   231fa:	fbb4 f4f3 	udiv	r4, r4, r3
   231fe:	fbb1 f3f3 	udiv	r3, r1, r3
   23202:	0aa4      	lsrs	r4, r4, #10
   23204:	09db      	lsrs	r3, r3, #7
   23206:	3401      	adds	r4, #1
   23208:	3301      	adds	r3, #1
   2320a:	f04f 0800 	mov.w	r8, #0
   2320e:	e756      	b.n	230be <hal_dramc_init+0x51a>
   23210:	f1be 0f02 	cmp.w	lr, #2
   23214:	f04f 0c00 	mov.w	ip, #0
   23218:	d0ed      	beq.n	231f6 <hal_dramc_init+0x652>
   2321a:	4663      	mov	r3, ip
   2321c:	4664      	mov	r4, ip
   2321e:	e7f4      	b.n	2320a <hal_dramc_init+0x666>
   23220:	0bebc200 	.word	0x0bebc200
   23224:	1dcd6500 	.word	0x1dcd6500
   23228:	00061a80 	.word	0x00061a80

0002322c <cpu_read_modify_write>:
   2322c:	6803      	ldr	r3, [r0, #0]
   2322e:	4059      	eors	r1, r3
   23230:	4011      	ands	r1, r2
   23232:	4059      	eors	r1, r3
   23234:	6001      	str	r1, [r0, #0]
   23236:	4770      	bx	lr

00023238 <hal_ddr2_phy_init>:
   23238:	b538      	push	{r3, r4, r5, lr}
   2323a:	4bd9      	ldr	r3, [pc, #868]	@ (235a0 <hal_ddr2_phy_init+0x368>)
   2323c:	4dd9      	ldr	r5, [pc, #868]	@ (235a4 <hal_ddr2_phy_init+0x36c>)
   2323e:	781b      	ldrb	r3, [r3, #0]
   23240:	fbb5 f5f0 	udiv	r5, r5, r0
   23244:	b123      	cbz	r3, 23250 <hal_ddr2_phy_init+0x18>
   23246:	4bd8      	ldr	r3, [pc, #864]	@ (235a8 <hal_ddr2_phy_init+0x370>)
   23248:	4629      	mov	r1, r5
   2324a:	48d8      	ldr	r0, [pc, #864]	@ (235ac <hal_ddr2_phy_init+0x374>)
   2324c:	69db      	ldr	r3, [r3, #28]
   2324e:	4798      	blx	r3
   23250:	4cd7      	ldr	r4, [pc, #860]	@ (235b0 <hal_ddr2_phy_init+0x378>)
   23252:	2001      	movs	r0, #1
   23254:	f003 f91a 	bl	2648c <hal_delay_us>
   23258:	2001      	movs	r0, #1
   2325a:	f8d4 308c 	ldr.w	r3, [r4, #140]	@ 0x8c
   2325e:	f443 7380 	orr.w	r3, r3, #256	@ 0x100
   23262:	f8c4 308c 	str.w	r3, [r4, #140]	@ 0x8c
   23266:	f003 f911 	bl	2648c <hal_delay_us>
   2326a:	f8d4 308c 	ldr.w	r3, [r4, #140]	@ 0x8c
   2326e:	2001      	movs	r0, #1
   23270:	f043 0301 	orr.w	r3, r3, #1
   23274:	f8c4 308c 	str.w	r3, [r4, #140]	@ 0x8c
   23278:	f003 f908 	bl	2648c <hal_delay_us>
   2327c:	f8d4 308c 	ldr.w	r3, [r4, #140]	@ 0x8c
   23280:	2100      	movs	r1, #0
   23282:	4628      	mov	r0, r5
   23284:	f043 0330 	orr.w	r3, r3, #48	@ 0x30
   23288:	f8c4 308c 	str.w	r3, [r4, #140]	@ 0x8c
   2328c:	f04f 3344 	mov.w	r3, #1145324612	@ 0x44444444
   23290:	f8c4 3080 	str.w	r3, [r4, #128]	@ 0x80
   23294:	f8d4 3084 	ldr.w	r3, [r4, #132]	@ 0x84
   23298:	f423 1340 	bic.w	r3, r3, #3145728	@ 0x300000
   2329c:	f023 0377 	bic.w	r3, r3, #119	@ 0x77
   232a0:	f443 1340 	orr.w	r3, r3, #3145728	@ 0x300000
   232a4:	f043 0343 	orr.w	r3, r3, #67	@ 0x43
   232a8:	f8c4 3084 	str.w	r3, [r4, #132]	@ 0x84
   232ac:	f8d4 3088 	ldr.w	r3, [r4, #136]	@ 0x88
   232b0:	f423 43ee 	bic.w	r3, r3, #30464	@ 0x7700
   232b4:	f023 0377 	bic.w	r3, r3, #119	@ 0x77
   232b8:	f443 5308 	orr.w	r3, r3, #8704	@ 0x2200
   232bc:	f043 0322 	orr.w	r3, r3, #34	@ 0x22
   232c0:	f8c4 3088 	str.w	r3, [r4, #136]	@ 0x88
   232c4:	f000 fd36 	bl	23d34 <dram_init_clk_frequency_dss>
   232c8:	6b22      	ldr	r2, [r4, #48]	@ 0x30
   232ca:	4bba      	ldr	r3, [pc, #744]	@ (235b4 <hal_ddr2_phy_init+0x37c>)
   232cc:	200a      	movs	r0, #10
   232ce:	f082 0103 	eor.w	r1, r2, #3
   232d2:	4019      	ands	r1, r3
   232d4:	404a      	eors	r2, r1
   232d6:	6322      	str	r2, [r4, #48]	@ 0x30
   232d8:	f8d4 20a4 	ldr.w	r2, [r4, #164]	@ 0xa4
   232dc:	f082 0103 	eor.w	r1, r2, #3
   232e0:	4019      	ands	r1, r3
   232e2:	404a      	eors	r2, r1
   232e4:	f8c4 20a4 	str.w	r2, [r4, #164]	@ 0xa4
   232e8:	6b62      	ldr	r2, [r4, #52]	@ 0x34
   232ea:	f082 0103 	eor.w	r1, r2, #3
   232ee:	4019      	ands	r1, r3
   232f0:	404a      	eors	r2, r1
   232f2:	6362      	str	r2, [r4, #52]	@ 0x34
   232f4:	6ba2      	ldr	r2, [r4, #56]	@ 0x38
   232f6:	f082 0103 	eor.w	r1, r2, #3
   232fa:	4019      	ands	r1, r3
   232fc:	404a      	eors	r2, r1
   232fe:	63a2      	str	r2, [r4, #56]	@ 0x38
   23300:	6c62      	ldr	r2, [r4, #68]	@ 0x44
   23302:	f082 0103 	eor.w	r1, r2, #3
   23306:	4019      	ands	r1, r3
   23308:	404a      	eors	r2, r1
   2330a:	6462      	str	r2, [r4, #68]	@ 0x44
   2330c:	6ca2      	ldr	r2, [r4, #72]	@ 0x48
   2330e:	f082 0103 	eor.w	r1, r2, #3
   23312:	4019      	ands	r1, r3
   23314:	404a      	eors	r2, r1
   23316:	64a2      	str	r2, [r4, #72]	@ 0x48
   23318:	6d62      	ldr	r2, [r4, #84]	@ 0x54
   2331a:	f082 0103 	eor.w	r1, r2, #3
   2331e:	400b      	ands	r3, r1
   23320:	405a      	eors	r2, r3
   23322:	6562      	str	r2, [r4, #84]	@ 0x54
   23324:	6963      	ldr	r3, [r4, #20]
   23326:	f423 13f8 	bic.w	r3, r3, #2031616	@ 0x1f0000
   2332a:	f443 2300 	orr.w	r3, r3, #524288	@ 0x80000
   2332e:	6163      	str	r3, [r4, #20]
   23330:	f8d4 3098 	ldr.w	r3, [r4, #152]	@ 0x98
   23334:	f023 131f 	bic.w	r3, r3, #2031647	@ 0x1f001f
   23338:	f423 53f8 	bic.w	r3, r3, #7936	@ 0x1f00
   2333c:	f043 1308 	orr.w	r3, r3, #524296	@ 0x80008
   23340:	f443 6300 	orr.w	r3, r3, #2048	@ 0x800
   23344:	f8c4 3098 	str.w	r3, [r4, #152]	@ 0x98
   23348:	f003 f8a0 	bl	2648c <hal_delay_us>
   2334c:	6822      	ldr	r2, [r4, #0]
   2334e:	4b9a      	ldr	r3, [pc, #616]	@ (235b8 <hal_ddr2_phy_init+0x380>)
   23350:	2001      	movs	r0, #1
   23352:	4013      	ands	r3, r2
   23354:	f443 7381 	orr.w	r3, r3, #258	@ 0x102
   23358:	6023      	str	r3, [r4, #0]
   2335a:	6823      	ldr	r3, [r4, #0]
   2335c:	f043 4380 	orr.w	r3, r3, #1073741824	@ 0x40000000
   23360:	6023      	str	r3, [r4, #0]
   23362:	f003 f893 	bl	2648c <hal_delay_us>
   23366:	f8d4 308c 	ldr.w	r3, [r4, #140]	@ 0x8c
   2336a:	2064      	movs	r0, #100	@ 0x64
   2336c:	f043 0302 	orr.w	r3, r3, #2
   23370:	f8c4 308c 	str.w	r3, [r4, #140]	@ 0x8c
   23374:	f003 f88a 	bl	2648c <hal_delay_us>
   23378:	f8d4 308c 	ldr.w	r3, [r4, #140]	@ 0x8c
   2337c:	f44f 70fa 	mov.w	r0, #500	@ 0x1f4
   23380:	f023 0308 	bic.w	r3, r3, #8
   23384:	f8c4 308c 	str.w	r3, [r4, #140]	@ 0x8c
   23388:	f8d4 308c 	ldr.w	r3, [r4, #140]	@ 0x8c
   2338c:	f043 030c 	orr.w	r3, r3, #12
   23390:	f8c4 308c 	str.w	r3, [r4, #140]	@ 0x8c
   23394:	f003 f87a 	bl	2648c <hal_delay_us>
   23398:	68a3      	ldr	r3, [r4, #8]
   2339a:	2001      	movs	r0, #1
   2339c:	f043 4300 	orr.w	r3, r3, #2147483648	@ 0x80000000
   233a0:	60a3      	str	r3, [r4, #8]
   233a2:	f003 f873 	bl	2648c <hal_delay_us>
   233a6:	f240 2315 	movw	r3, #533	@ 0x215
   233aa:	429d      	cmp	r5, r3
   233ac:	f000 815d 	beq.w	2366a <hal_ddr2_phy_init+0x432>
   233b0:	f5b5 7fc8 	cmp.w	r5, #400	@ 0x190
   233b4:	f000 815b 	beq.w	2366e <hal_ddr2_phy_init+0x436>
   233b8:	f240 134d 	movw	r3, #333	@ 0x14d
   233bc:	429d      	cmp	r5, r3
   233be:	f000 8158 	beq.w	23672 <hal_ddr2_phy_init+0x43a>
   233c2:	2dc8      	cmp	r5, #200	@ 0xc8
   233c4:	f000 8157 	beq.w	23676 <hal_ddr2_phy_init+0x43e>
   233c8:	f5b5 7ff0 	cmp.w	r5, #480	@ 0x1e0
   233cc:	bf0c      	ite	eq
   233ce:	2304      	moveq	r3, #4
   233d0:	2305      	movne	r3, #5
   233d2:	4a7a      	ldr	r2, [pc, #488]	@ (235bc <hal_ddr2_phy_init+0x384>)
   233d4:	211a      	movs	r1, #26
   233d6:	4c76      	ldr	r4, [pc, #472]	@ (235b0 <hal_ddr2_phy_init+0x378>)
   233d8:	4628      	mov	r0, r5
   233da:	fb01 2103 	mla	r1, r1, r3, r2
   233de:	f000 fc61 	bl	23ca4 <dram_set_pll_frequency>
   233e2:	2032      	movs	r0, #50	@ 0x32
   233e4:	f003 f852 	bl	2648c <hal_delay_us>
   233e8:	6863      	ldr	r3, [r4, #4]
   233ea:	2001      	movs	r0, #1
   233ec:	f423 53ff 	bic.w	r3, r3, #8160	@ 0x1fe0
   233f0:	f023 031f 	bic.w	r3, r3, #31
   233f4:	6063      	str	r3, [r4, #4]
   233f6:	f003 f849 	bl	2648c <hal_delay_us>
   233fa:	68a3      	ldr	r3, [r4, #8]
   233fc:	2001      	movs	r0, #1
   233fe:	f423 23e0 	bic.w	r3, r3, #458752	@ 0x70000
   23402:	60a3      	str	r3, [r4, #8]
   23404:	f003 f842 	bl	2648c <hal_delay_us>
   23408:	6863      	ldr	r3, [r4, #4]
   2340a:	2001      	movs	r0, #1
   2340c:	f423 53ff 	bic.w	r3, r3, #8160	@ 0x1fe0
   23410:	f023 031f 	bic.w	r3, r3, #31
   23414:	ea6f 3313 	mvn.w	r3, r3, lsr #12
   23418:	ea6f 3303 	mvn.w	r3, r3, lsl #12
   2341c:	6063      	str	r3, [r4, #4]
   2341e:	f003 f835 	bl	2648c <hal_delay_us>
   23422:	68a3      	ldr	r3, [r4, #8]
   23424:	2001      	movs	r0, #1
   23426:	f443 23e0 	orr.w	r3, r3, #458752	@ 0x70000
   2342a:	60a3      	str	r3, [r4, #8]
   2342c:	f003 f82e 	bl	2648c <hal_delay_us>
   23430:	f04f 43a0 	mov.w	r3, #1342177280	@ 0x50000000
   23434:	f8d3 2884 	ldr.w	r2, [r3, #2180]	@ 0x884
   23438:	0712      	lsls	r2, r2, #28
   2343a:	d5fb      	bpl.n	23434 <hal_ddr2_phy_init+0x1fc>
   2343c:	f8d3 2884 	ldr.w	r2, [r3, #2180]	@ 0x884
   23440:	f04f 3111 	mov.w	r1, #286331153	@ 0x11111111
   23444:	f042 0202 	orr.w	r2, r2, #2
   23448:	f8c3 2884 	str.w	r2, [r3, #2180]	@ 0x884
   2344c:	4b58      	ldr	r3, [pc, #352]	@ (235b0 <hal_ddr2_phy_init+0x378>)
   2344e:	4a5c      	ldr	r2, [pc, #368]	@ (235c0 <hal_ddr2_phy_init+0x388>)
   23450:	f8c3 1190 	str.w	r1, [r3, #400]	@ 0x190
   23454:	f8c3 2194 	str.w	r2, [r3, #404]	@ 0x194
   23458:	f8c3 1198 	str.w	r1, [r3, #408]	@ 0x198
   2345c:	f8c3 219c 	str.w	r2, [r3, #412]	@ 0x19c
   23460:	f8c3 11b0 	str.w	r1, [r3, #432]	@ 0x1b0
   23464:	f8c3 21b4 	str.w	r2, [r3, #436]	@ 0x1b4
   23468:	f8c3 11b8 	str.w	r1, [r3, #440]	@ 0x1b8
   2346c:	f06f 0188 	mvn.w	r1, #136	@ 0x88
   23470:	f8c3 21bc 	str.w	r2, [r3, #444]	@ 0x1bc
   23474:	4a53      	ldr	r2, [pc, #332]	@ (235c4 <hal_ddr2_phy_init+0x38c>)
   23476:	f8c3 21c8 	str.w	r2, [r3, #456]	@ 0x1c8
   2347a:	f8c3 21cc 	str.w	r2, [r3, #460]	@ 0x1cc
   2347e:	f04f 3277 	mov.w	r2, #2004318071	@ 0x77777777
   23482:	f8c3 21e0 	str.w	r2, [r3, #480]	@ 0x1e0
   23486:	f8c3 21e4 	str.w	r2, [r3, #484]	@ 0x1e4
   2348a:	f8c3 11e8 	str.w	r1, [r3, #488]	@ 0x1e8
   2348e:	f06f 2188 	mvn.w	r1, #2281736192	@ 0x88008800
   23492:	f8c3 11ec 	str.w	r1, [r3, #492]	@ 0x1ec
   23496:	f8c3 21f0 	str.w	r2, [r3, #496]	@ 0x1f0
   2349a:	f8d3 2240 	ldr.w	r2, [r3, #576]	@ 0x240
   2349e:	f042 5286 	orr.w	r2, r2, #281018368	@ 0x10c00000
   234a2:	f8c3 2240 	str.w	r2, [r3, #576]	@ 0x240
   234a6:	681a      	ldr	r2, [r3, #0]
   234a8:	f422 2281 	bic.w	r2, r2, #264192	@ 0x40800
   234ac:	601a      	str	r2, [r3, #0]
   234ae:	681a      	ldr	r2, [r3, #0]
   234b0:	f022 0204 	bic.w	r2, r2, #4
   234b4:	601a      	str	r2, [r3, #0]
   234b6:	f8d3 2238 	ldr.w	r2, [r3, #568]	@ 0x238
   234ba:	f022 0203 	bic.w	r2, r2, #3
   234be:	f042 0202 	orr.w	r2, r2, #2
   234c2:	f8c3 2238 	str.w	r2, [r3, #568]	@ 0x238
   234c6:	4a40      	ldr	r2, [pc, #256]	@ (235c8 <hal_ddr2_phy_init+0x390>)
   234c8:	f8c3 2154 	str.w	r2, [r3, #340]	@ 0x154
   234cc:	f8d3 24e0 	ldr.w	r2, [r3, #1248]	@ 0x4e0
   234d0:	f022 0201 	bic.w	r2, r2, #1
   234d4:	f8c3 24e0 	str.w	r2, [r3, #1248]	@ 0x4e0
   234d8:	f8d3 24e4 	ldr.w	r2, [r3, #1252]	@ 0x4e4
   234dc:	f022 0201 	bic.w	r2, r2, #1
   234e0:	f8c3 24e4 	str.w	r2, [r3, #1252]	@ 0x4e4
   234e4:	f8d3 2238 	ldr.w	r2, [r3, #568]	@ 0x238
   234e8:	f422 1240 	bic.w	r2, r2, #3145728	@ 0x300000
   234ec:	f422 527c 	bic.w	r2, r2, #16128	@ 0x3f00
   234f0:	f442 5280 	orr.w	r2, r2, #4096	@ 0x1000
   234f4:	f8c3 2238 	str.w	r2, [r3, #568]	@ 0x238
   234f8:	f8d3 25f8 	ldr.w	r2, [r3, #1528]	@ 0x5f8
   234fc:	f022 027f 	bic.w	r2, r2, #127	@ 0x7f
   23500:	f042 0207 	orr.w	r2, r2, #7
   23504:	f8c3 25f8 	str.w	r2, [r3, #1528]	@ 0x5f8
   23508:	f8d3 25fc 	ldr.w	r2, [r3, #1532]	@ 0x5fc
   2350c:	f022 027f 	bic.w	r2, r2, #127	@ 0x7f
   23510:	f042 0207 	orr.w	r2, r2, #7
   23514:	f8c3 25fc 	str.w	r2, [r3, #1532]	@ 0x5fc
   23518:	f8d3 2170 	ldr.w	r2, [r3, #368]	@ 0x170
   2351c:	f022 023f 	bic.w	r2, r2, #63	@ 0x3f
   23520:	f042 0206 	orr.w	r2, r2, #6
   23524:	f8c3 2170 	str.w	r2, [r3, #368]	@ 0x170
   23528:	691a      	ldr	r2, [r3, #16]
   2352a:	f022 021f 	bic.w	r2, r2, #31
   2352e:	f042 0216 	orr.w	r2, r2, #22
   23532:	611a      	str	r2, [r3, #16]
   23534:	689a      	ldr	r2, [r3, #8]
   23536:	f042 0201 	orr.w	r2, r2, #1
   2353a:	609a      	str	r2, [r3, #8]
   2353c:	f8d3 2098 	ldr.w	r2, [r3, #152]	@ 0x98
   23540:	f022 52f8 	bic.w	r2, r2, #520093696	@ 0x1f000000
   23544:	f8c3 2098 	str.w	r2, [r3, #152]	@ 0x98
   23548:	691a      	ldr	r2, [r3, #16]
   2354a:	f422 12f8 	bic.w	r2, r2, #2031616	@ 0x1f0000
   2354e:	f442 12f0 	orr.w	r2, r2, #1966080	@ 0x1e0000
   23552:	611a      	str	r2, [r3, #16]
   23554:	f8d3 2080 	ldr.w	r2, [r3, #128]	@ 0x80
   23558:	f022 0270 	bic.w	r2, r2, #112	@ 0x70
   2355c:	f042 0230 	orr.w	r2, r2, #48	@ 0x30
   23560:	f8c3 2080 	str.w	r2, [r3, #128]	@ 0x80
   23564:	691a      	ldr	r2, [r3, #16]
   23566:	f022 52f8 	bic.w	r2, r2, #520093696	@ 0x1f000000
   2356a:	f042 52d8 	orr.w	r2, r2, #452984832	@ 0x1b000000
   2356e:	611a      	str	r2, [r3, #16]
   23570:	f8d3 2080 	ldr.w	r2, [r3, #128]	@ 0x80
   23574:	f422 42e0 	bic.w	r2, r2, #28672	@ 0x7000
   23578:	f442 5240 	orr.w	r2, r2, #12288	@ 0x3000
   2357c:	f8c3 2080 	str.w	r2, [r3, #128]	@ 0x80
   23580:	689a      	ldr	r2, [r3, #8]
   23582:	f042 0204 	orr.w	r2, r2, #4
   23586:	609a      	str	r2, [r3, #8]
   23588:	689a      	ldr	r2, [r3, #8]
   2358a:	f042 0208 	orr.w	r2, r2, #8
   2358e:	609a      	str	r2, [r3, #8]
   23590:	695a      	ldr	r2, [r3, #20]
   23592:	f422 12f8 	bic.w	r2, r2, #2031616	@ 0x1f0000
   23596:	f442 22c0 	orr.w	r2, r2, #393216	@ 0x60000
   2359a:	615a      	str	r2, [r3, #20]
   2359c:	e016      	b.n	235cc <hal_ddr2_phy_init+0x394>
   2359e:	bf00      	nop
   235a0:	0001a2a0 	.word	0x0001a2a0
   235a4:	000f4240 	.word	0x000f4240
   235a8:	100bc800 	.word	0x100bc800
   235ac:	20101665 	.word	0x20101665
   235b0:	40608000 	.word	0x40608000
   235b4:	20000007 	.word	0x20000007
   235b8:	f7f7fecd 	.word	0xf7f7fecd
   235bc:	00020aa4 	.word	0x00020aa4
   235c0:	18111111 	.word	0x18111111
   235c4:	ffff7777 	.word	0xffff7777
   235c8:	7c055555 	.word	0x7c055555
   235cc:	f8d3 2098 	ldr.w	r2, [r3, #152]	@ 0x98
   235d0:	f022 021f 	bic.w	r2, r2, #31
   235d4:	f042 0204 	orr.w	r2, r2, #4
   235d8:	f8c3 2098 	str.w	r2, [r3, #152]	@ 0x98
   235dc:	f04f 3288 	mov.w	r2, #2290649224	@ 0x88888888
   235e0:	f8c3 2460 	str.w	r2, [r3, #1120]	@ 0x460
   235e4:	f8c3 2464 	str.w	r2, [r3, #1124]	@ 0x464
   235e8:	f640 0288 	movw	r2, #2184	@ 0x888
   235ec:	f8c3 2468 	str.w	r2, [r3, #1128]	@ 0x468
   235f0:	f8c3 246c 	str.w	r2, [r3, #1132]	@ 0x46c
   235f4:	f8d3 223c 	ldr.w	r2, [r3, #572]	@ 0x23c
   235f8:	f042 0203 	orr.w	r2, r2, #3
   235fc:	f8c3 223c 	str.w	r2, [r3, #572]	@ 0x23c
   23600:	f8d3 223c 	ldr.w	r2, [r3, #572]	@ 0x23c
   23604:	f042 020c 	orr.w	r2, r2, #12
   23608:	f8c3 223c 	str.w	r2, [r3, #572]	@ 0x23c
   2360c:	f8d3 25f8 	ldr.w	r2, [r3, #1528]	@ 0x5f8
   23610:	f022 42f8 	bic.w	r2, r2, #2080374784	@ 0x7c000000
   23614:	f042 5210 	orr.w	r2, r2, #603979776	@ 0x24000000
   23618:	f8c3 25f8 	str.w	r2, [r3, #1528]	@ 0x5f8
   2361c:	f8d3 25fc 	ldr.w	r2, [r3, #1532]	@ 0x5fc
   23620:	f022 42f8 	bic.w	r2, r2, #2080374784	@ 0x7c000000
   23624:	f042 5240 	orr.w	r2, r2, #805306368	@ 0x30000000
   23628:	f8c3 25fc 	str.w	r2, [r3, #1532]	@ 0x5fc
   2362c:	f04f 3210 	mov.w	r2, #269488144	@ 0x10101010
   23630:	f8c3 2420 	str.w	r2, [r3, #1056]	@ 0x420
   23634:	f8c3 2424 	str.w	r2, [r3, #1060]	@ 0x424
   23638:	f8c3 2428 	str.w	r2, [r3, #1064]	@ 0x428
   2363c:	f8c3 242c 	str.w	r2, [r3, #1068]	@ 0x42c
   23640:	f8c3 2438 	str.w	r2, [r3, #1080]	@ 0x438
   23644:	f8c3 243c 	str.w	r2, [r3, #1084]	@ 0x43c
   23648:	f8c3 2440 	str.w	r2, [r3, #1088]	@ 0x440
   2364c:	f8c3 2444 	str.w	r2, [r3, #1092]	@ 0x444
   23650:	f8d3 223c 	ldr.w	r2, [r3, #572]	@ 0x23c
   23654:	f042 020c 	orr.w	r2, r2, #12
   23658:	f8c3 223c 	str.w	r2, [r3, #572]	@ 0x23c
   2365c:	f8d3 2238 	ldr.w	r2, [r3, #568]	@ 0x238
   23660:	f022 0203 	bic.w	r2, r2, #3
   23664:	f8c3 2238 	str.w	r2, [r3, #568]	@ 0x238
   23668:	bd38      	pop	{r3, r4, r5, pc}
   2366a:	2300      	movs	r3, #0
   2366c:	e6b1      	b.n	233d2 <hal_ddr2_phy_init+0x19a>
   2366e:	2301      	movs	r3, #1
   23670:	e6af      	b.n	233d2 <hal_ddr2_phy_init+0x19a>
   23672:	2302      	movs	r3, #2
   23674:	e6ad      	b.n	233d2 <hal_ddr2_phy_init+0x19a>
   23676:	2303      	movs	r3, #3
   23678:	e6ab      	b.n	233d2 <hal_ddr2_phy_init+0x19a>
   2367a:	bf00      	nop

0002367c <hal_ddr3_phy_init>:
   2367c:	b538      	push	{r3, r4, r5, lr}
   2367e:	4bd3      	ldr	r3, [pc, #844]	@ (239cc <hal_ddr3_phy_init+0x350>)
   23680:	4dd3      	ldr	r5, [pc, #844]	@ (239d0 <hal_ddr3_phy_init+0x354>)
   23682:	781b      	ldrb	r3, [r3, #0]
   23684:	fbb5 f5f0 	udiv	r5, r5, r0
   23688:	b123      	cbz	r3, 23694 <hal_ddr3_phy_init+0x18>
   2368a:	4bd2      	ldr	r3, [pc, #840]	@ (239d4 <hal_ddr3_phy_init+0x358>)
   2368c:	4629      	mov	r1, r5
   2368e:	48d2      	ldr	r0, [pc, #840]	@ (239d8 <hal_ddr3_phy_init+0x35c>)
   23690:	69db      	ldr	r3, [r3, #28]
   23692:	4798      	blx	r3
   23694:	4cd1      	ldr	r4, [pc, #836]	@ (239dc <hal_ddr3_phy_init+0x360>)
   23696:	2001      	movs	r0, #1
   23698:	f002 fef8 	bl	2648c <hal_delay_us>
   2369c:	2001      	movs	r0, #1
   2369e:	f8d4 308c 	ldr.w	r3, [r4, #140]	@ 0x8c
   236a2:	f443 7380 	orr.w	r3, r3, #256	@ 0x100
   236a6:	f8c4 308c 	str.w	r3, [r4, #140]	@ 0x8c
   236aa:	f002 feef 	bl	2648c <hal_delay_us>
   236ae:	f8d4 308c 	ldr.w	r3, [r4, #140]	@ 0x8c
   236b2:	2001      	movs	r0, #1
   236b4:	f043 0301 	orr.w	r3, r3, #1
   236b8:	f8c4 308c 	str.w	r3, [r4, #140]	@ 0x8c
   236bc:	f002 fee6 	bl	2648c <hal_delay_us>
   236c0:	f8d4 308c 	ldr.w	r3, [r4, #140]	@ 0x8c
   236c4:	2100      	movs	r1, #0
   236c6:	4628      	mov	r0, r5
   236c8:	f043 0330 	orr.w	r3, r3, #48	@ 0x30
   236cc:	f8c4 308c 	str.w	r3, [r4, #140]	@ 0x8c
   236d0:	f04f 3344 	mov.w	r3, #1145324612	@ 0x44444444
   236d4:	f8c4 3080 	str.w	r3, [r4, #128]	@ 0x80
   236d8:	f8d4 3084 	ldr.w	r3, [r4, #132]	@ 0x84
   236dc:	f423 1340 	bic.w	r3, r3, #3145728	@ 0x300000
   236e0:	f023 0377 	bic.w	r3, r3, #119	@ 0x77
   236e4:	f443 1340 	orr.w	r3, r3, #3145728	@ 0x300000
   236e8:	f043 0343 	orr.w	r3, r3, #67	@ 0x43
   236ec:	f8c4 3084 	str.w	r3, [r4, #132]	@ 0x84
   236f0:	f8d4 3088 	ldr.w	r3, [r4, #136]	@ 0x88
   236f4:	f423 43ee 	bic.w	r3, r3, #30464	@ 0x7700
   236f8:	f023 0377 	bic.w	r3, r3, #119	@ 0x77
   236fc:	f443 5308 	orr.w	r3, r3, #8704	@ 0x2200
   23700:	f043 0322 	orr.w	r3, r3, #34	@ 0x22
   23704:	f8c4 3088 	str.w	r3, [r4, #136]	@ 0x88
   23708:	f000 fb14 	bl	23d34 <dram_init_clk_frequency_dss>
   2370c:	6b22      	ldr	r2, [r4, #48]	@ 0x30
   2370e:	4bb4      	ldr	r3, [pc, #720]	@ (239e0 <hal_ddr3_phy_init+0x364>)
   23710:	200a      	movs	r0, #10
   23712:	f082 0103 	eor.w	r1, r2, #3
   23716:	4019      	ands	r1, r3
   23718:	404a      	eors	r2, r1
   2371a:	6322      	str	r2, [r4, #48]	@ 0x30
   2371c:	f8d4 20a4 	ldr.w	r2, [r4, #164]	@ 0xa4
   23720:	f082 0103 	eor.w	r1, r2, #3
   23724:	4019      	ands	r1, r3
   23726:	404a      	eors	r2, r1
   23728:	f8c4 20a4 	str.w	r2, [r4, #164]	@ 0xa4
   2372c:	6b62      	ldr	r2, [r4, #52]	@ 0x34
   2372e:	f082 0103 	eor.w	r1, r2, #3
   23732:	4019      	ands	r1, r3
   23734:	404a      	eors	r2, r1
   23736:	6362      	str	r2, [r4, #52]	@ 0x34
   23738:	6ba2      	ldr	r2, [r4, #56]	@ 0x38
   2373a:	f082 0103 	eor.w	r1, r2, #3
   2373e:	4019      	ands	r1, r3
   23740:	404a      	eors	r2, r1
   23742:	63a2      	str	r2, [r4, #56]	@ 0x38
   23744:	6c62      	ldr	r2, [r4, #68]	@ 0x44
   23746:	f082 0103 	eor.w	r1, r2, #3
   2374a:	4019      	ands	r1, r3
   2374c:	404a      	eors	r2, r1
   2374e:	6462      	str	r2, [r4, #68]	@ 0x44
   23750:	6ca2      	ldr	r2, [r4, #72]	@ 0x48
   23752:	f082 0103 	eor.w	r1, r2, #3
   23756:	4019      	ands	r1, r3
   23758:	404a      	eors	r2, r1
   2375a:	64a2      	str	r2, [r4, #72]	@ 0x48
   2375c:	6d62      	ldr	r2, [r4, #84]	@ 0x54
   2375e:	f082 0103 	eor.w	r1, r2, #3
   23762:	400b      	ands	r3, r1
   23764:	405a      	eors	r2, r3
   23766:	6562      	str	r2, [r4, #84]	@ 0x54
   23768:	6963      	ldr	r3, [r4, #20]
   2376a:	f423 13f8 	bic.w	r3, r3, #2031616	@ 0x1f0000
   2376e:	f443 2300 	orr.w	r3, r3, #524288	@ 0x80000
   23772:	6163      	str	r3, [r4, #20]
   23774:	f8d4 3098 	ldr.w	r3, [r4, #152]	@ 0x98
   23778:	f023 131f 	bic.w	r3, r3, #2031647	@ 0x1f001f
   2377c:	f423 53f8 	bic.w	r3, r3, #7936	@ 0x1f00
   23780:	f043 1308 	orr.w	r3, r3, #524296	@ 0x80008
   23784:	f443 6300 	orr.w	r3, r3, #2048	@ 0x800
   23788:	f8c4 3098 	str.w	r3, [r4, #152]	@ 0x98
   2378c:	f002 fe7e 	bl	2648c <hal_delay_us>
   23790:	6822      	ldr	r2, [r4, #0]
   23792:	4b94      	ldr	r3, [pc, #592]	@ (239e4 <hal_ddr3_phy_init+0x368>)
   23794:	2001      	movs	r0, #1
   23796:	4013      	ands	r3, r2
   23798:	f443 2300 	orr.w	r3, r3, #524288	@ 0x80000
   2379c:	f043 0321 	orr.w	r3, r3, #33	@ 0x21
   237a0:	6023      	str	r3, [r4, #0]
   237a2:	6823      	ldr	r3, [r4, #0]
   237a4:	f043 4380 	orr.w	r3, r3, #1073741824	@ 0x40000000
   237a8:	6023      	str	r3, [r4, #0]
   237aa:	f002 fe6f 	bl	2648c <hal_delay_us>
   237ae:	f8d4 308c 	ldr.w	r3, [r4, #140]	@ 0x8c
   237b2:	2064      	movs	r0, #100	@ 0x64
   237b4:	f043 0302 	orr.w	r3, r3, #2
   237b8:	f8c4 308c 	str.w	r3, [r4, #140]	@ 0x8c
   237bc:	f002 fe66 	bl	2648c <hal_delay_us>
   237c0:	f8d4 308c 	ldr.w	r3, [r4, #140]	@ 0x8c
   237c4:	2001      	movs	r0, #1
   237c6:	f023 0308 	bic.w	r3, r3, #8
   237ca:	f8c4 308c 	str.w	r3, [r4, #140]	@ 0x8c
   237ce:	f8d4 308c 	ldr.w	r3, [r4, #140]	@ 0x8c
   237d2:	f043 030c 	orr.w	r3, r3, #12
   237d6:	f8c4 308c 	str.w	r3, [r4, #140]	@ 0x8c
   237da:	f002 fe57 	bl	2648c <hal_delay_us>
   237de:	68a3      	ldr	r3, [r4, #8]
   237e0:	2001      	movs	r0, #1
   237e2:	f043 4300 	orr.w	r3, r3, #2147483648	@ 0x80000000
   237e6:	60a3      	str	r3, [r4, #8]
   237e8:	f002 fe50 	bl	2648c <hal_delay_us>
   237ec:	f240 2315 	movw	r3, #533	@ 0x215
   237f0:	429d      	cmp	r5, r3
   237f2:	f000 8181 	beq.w	23af8 <hal_ddr3_phy_init+0x47c>
   237f6:	f5b5 7fc8 	cmp.w	r5, #400	@ 0x190
   237fa:	f000 817f 	beq.w	23afc <hal_ddr3_phy_init+0x480>
   237fe:	f240 134d 	movw	r3, #333	@ 0x14d
   23802:	429d      	cmp	r5, r3
   23804:	f000 817c 	beq.w	23b00 <hal_ddr3_phy_init+0x484>
   23808:	2dc8      	cmp	r5, #200	@ 0xc8
   2380a:	f000 817b 	beq.w	23b04 <hal_ddr3_phy_init+0x488>
   2380e:	f5b5 7ff0 	cmp.w	r5, #480	@ 0x1e0
   23812:	bf0c      	ite	eq
   23814:	2304      	moveq	r3, #4
   23816:	2305      	movne	r3, #5
   23818:	4a73      	ldr	r2, [pc, #460]	@ (239e8 <hal_ddr3_phy_init+0x36c>)
   2381a:	211a      	movs	r1, #26
   2381c:	4c6f      	ldr	r4, [pc, #444]	@ (239dc <hal_ddr3_phy_init+0x360>)
   2381e:	4628      	mov	r0, r5
   23820:	fb01 2103 	mla	r1, r1, r3, r2
   23824:	f000 fa3e 	bl	23ca4 <dram_set_pll_frequency>
   23828:	2032      	movs	r0, #50	@ 0x32
   2382a:	f002 fe2f 	bl	2648c <hal_delay_us>
   2382e:	6863      	ldr	r3, [r4, #4]
   23830:	2001      	movs	r0, #1
   23832:	f423 53ff 	bic.w	r3, r3, #8160	@ 0x1fe0
   23836:	f023 031f 	bic.w	r3, r3, #31
   2383a:	6063      	str	r3, [r4, #4]
   2383c:	f002 fe26 	bl	2648c <hal_delay_us>
   23840:	68a3      	ldr	r3, [r4, #8]
   23842:	2001      	movs	r0, #1
   23844:	f423 23e0 	bic.w	r3, r3, #458752	@ 0x70000
   23848:	60a3      	str	r3, [r4, #8]
   2384a:	f002 fe1f 	bl	2648c <hal_delay_us>
   2384e:	6863      	ldr	r3, [r4, #4]
   23850:	2001      	movs	r0, #1
   23852:	f423 53ff 	bic.w	r3, r3, #8160	@ 0x1fe0
   23856:	f023 031f 	bic.w	r3, r3, #31
   2385a:	ea6f 3313 	mvn.w	r3, r3, lsr #12
   2385e:	ea6f 3303 	mvn.w	r3, r3, lsl #12
   23862:	6063      	str	r3, [r4, #4]
   23864:	f002 fe12 	bl	2648c <hal_delay_us>
   23868:	68a3      	ldr	r3, [r4, #8]
   2386a:	2001      	movs	r0, #1
   2386c:	f443 23e0 	orr.w	r3, r3, #458752	@ 0x70000
   23870:	60a3      	str	r3, [r4, #8]
   23872:	f002 fe0b 	bl	2648c <hal_delay_us>
   23876:	f04f 43a0 	mov.w	r3, #1342177280	@ 0x50000000
   2387a:	f8d3 2884 	ldr.w	r2, [r3, #2180]	@ 0x884
   2387e:	0712      	lsls	r2, r2, #28
   23880:	d5fb      	bpl.n	2387a <hal_ddr3_phy_init+0x1fe>
   23882:	f8d3 2884 	ldr.w	r2, [r3, #2180]	@ 0x884
   23886:	2100      	movs	r1, #0
   23888:	f042 0202 	orr.w	r2, r2, #2
   2388c:	f8c3 2884 	str.w	r2, [r3, #2180]	@ 0x884
   23890:	4b52      	ldr	r3, [pc, #328]	@ (239dc <hal_ddr3_phy_init+0x360>)
   23892:	4a56      	ldr	r2, [pc, #344]	@ (239ec <hal_ddr3_phy_init+0x370>)
   23894:	f8c3 2190 	str.w	r2, [r3, #400]	@ 0x190
   23898:	f8c3 2198 	str.w	r2, [r3, #408]	@ 0x198
   2389c:	f8c3 21b0 	str.w	r2, [r3, #432]	@ 0x1b0
   238a0:	f8c3 21b8 	str.w	r2, [r3, #440]	@ 0x1b8
   238a4:	4a52      	ldr	r2, [pc, #328]	@ (239f0 <hal_ddr3_phy_init+0x374>)
   238a6:	f8c3 1180 	str.w	r1, [r3, #384]	@ 0x180
   238aa:	f8c3 1188 	str.w	r1, [r3, #392]	@ 0x188
   238ae:	f8c3 11a0 	str.w	r1, [r3, #416]	@ 0x1a0
   238b2:	f8c3 11a8 	str.w	r1, [r3, #424]	@ 0x1a8
   238b6:	f8c3 21c0 	str.w	r2, [r3, #448]	@ 0x1c0
   238ba:	f8c3 21c4 	str.w	r2, [r3, #452]	@ 0x1c4
   238be:	f8c3 21d0 	str.w	r2, [r3, #464]	@ 0x1d0
   238c2:	f8c3 21d4 	str.w	r2, [r3, #468]	@ 0x1d4
   238c6:	f8c3 21d8 	str.w	r2, [r3, #472]	@ 0x1d8
   238ca:	f8c3 21dc 	str.w	r2, [r3, #476]	@ 0x1dc
   238ce:	f8c3 2234 	str.w	r2, [r3, #564]	@ 0x234
   238d2:	f8c3 21c8 	str.w	r2, [r3, #456]	@ 0x1c8
   238d6:	f8c3 21cc 	str.w	r2, [r3, #460]	@ 0x1cc
   238da:	f8c3 11e0 	str.w	r1, [r3, #480]	@ 0x1e0
   238de:	f8c3 11e4 	str.w	r1, [r3, #484]	@ 0x1e4
   238e2:	f8c3 11f0 	str.w	r1, [r3, #496]	@ 0x1f0
   238e6:	4943      	ldr	r1, [pc, #268]	@ (239f4 <hal_ddr3_phy_init+0x378>)
   238e8:	680a      	ldr	r2, [r1, #0]
   238ea:	2a00      	cmp	r2, #0
   238ec:	f000 810c 	beq.w	23b08 <hal_ddr3_phy_init+0x48c>
   238f0:	4a41      	ldr	r2, [pc, #260]	@ (239f8 <hal_ddr3_phy_init+0x37c>)
   238f2:	f8c3 21e8 	str.w	r2, [r3, #488]	@ 0x1e8
   238f6:	f06f 22ee 	mvn.w	r2, #3993038336	@ 0xee00ee00
   238fa:	f8c3 21ec 	str.w	r2, [r3, #492]	@ 0x1ec
   238fe:	f04f 3211 	mov.w	r2, #286331153	@ 0x11111111
   23902:	f8c3 2204 	str.w	r2, [r3, #516]	@ 0x204
   23906:	f8c3 2208 	str.w	r2, [r3, #520]	@ 0x208
   2390a:	f8c3 220c 	str.w	r2, [r3, #524]	@ 0x20c
   2390e:	f8c3 2210 	str.w	r2, [r3, #528]	@ 0x210
   23912:	f8c3 2214 	str.w	r2, [r3, #532]	@ 0x214
   23916:	f8c3 2218 	str.w	r2, [r3, #536]	@ 0x218
   2391a:	f8c3 221c 	str.w	r2, [r3, #540]	@ 0x21c
   2391e:	f8c3 2220 	str.w	r2, [r3, #544]	@ 0x220
   23922:	f8c3 2224 	str.w	r2, [r3, #548]	@ 0x224
   23926:	f06f 02dd 	mvn.w	r2, #221	@ 0xdd
   2392a:	f8c3 2228 	str.w	r2, [r3, #552]	@ 0x228
   2392e:	4a33      	ldr	r2, [pc, #204]	@ (239fc <hal_ddr3_phy_init+0x380>)
   23930:	f8c3 222c 	str.w	r2, [r3, #556]	@ 0x22c
   23934:	f102 5290 	add.w	r2, r2, #301989888	@ 0x12000000
   23938:	f8c3 2230 	str.w	r2, [r3, #560]	@ 0x230
   2393c:	f8d3 2240 	ldr.w	r2, [r3, #576]	@ 0x240
   23940:	f042 5286 	orr.w	r2, r2, #281018368	@ 0x10c00000
   23944:	f8c3 2240 	str.w	r2, [r3, #576]	@ 0x240
   23948:	681a      	ldr	r2, [r3, #0]
   2394a:	f422 2281 	bic.w	r2, r2, #264192	@ 0x40800
   2394e:	601a      	str	r2, [r3, #0]
   23950:	681a      	ldr	r2, [r3, #0]
   23952:	f022 0204 	bic.w	r2, r2, #4
   23956:	601a      	str	r2, [r3, #0]
   23958:	f8d3 2238 	ldr.w	r2, [r3, #568]	@ 0x238
   2395c:	f022 0203 	bic.w	r2, r2, #3
   23960:	f042 0202 	orr.w	r2, r2, #2
   23964:	f8c3 2238 	str.w	r2, [r3, #568]	@ 0x238
   23968:	4a25      	ldr	r2, [pc, #148]	@ (23a00 <hal_ddr3_phy_init+0x384>)
   2396a:	f8c3 2154 	str.w	r2, [r3, #340]	@ 0x154
   2396e:	f8d3 24e0 	ldr.w	r2, [r3, #1248]	@ 0x4e0
   23972:	f022 0201 	bic.w	r2, r2, #1
   23976:	f8c3 24e0 	str.w	r2, [r3, #1248]	@ 0x4e0
   2397a:	f8d3 24e4 	ldr.w	r2, [r3, #1252]	@ 0x4e4
   2397e:	f022 0201 	bic.w	r2, r2, #1
   23982:	f8c3 24e4 	str.w	r2, [r3, #1252]	@ 0x4e4
   23986:	4a1f      	ldr	r2, [pc, #124]	@ (23a04 <hal_ddr3_phy_init+0x388>)
   23988:	f8d3 0238 	ldr.w	r0, [r3, #568]	@ 0x238
   2398c:	4002      	ands	r2, r0
   2398e:	f442 5280 	orr.w	r2, r2, #4096	@ 0x1000
   23992:	f042 0202 	orr.w	r2, r2, #2
   23996:	f8c3 2238 	str.w	r2, [r3, #568]	@ 0x238
   2399a:	f8d3 25f8 	ldr.w	r2, [r3, #1528]	@ 0x5f8
   2399e:	f022 027f 	bic.w	r2, r2, #127	@ 0x7f
   239a2:	f042 0209 	orr.w	r2, r2, #9
   239a6:	f8c3 25f8 	str.w	r2, [r3, #1528]	@ 0x5f8
   239aa:	f8d3 25fc 	ldr.w	r2, [r3, #1532]	@ 0x5fc
   239ae:	f022 027f 	bic.w	r2, r2, #127	@ 0x7f
   239b2:	f042 0209 	orr.w	r2, r2, #9
   239b6:	f8c3 25fc 	str.w	r2, [r3, #1532]	@ 0x5fc
   239ba:	2206      	movs	r2, #6
   239bc:	f8c3 2170 	str.w	r2, [r3, #368]	@ 0x170
   239c0:	680a      	ldr	r2, [r1, #0]
   239c2:	2a00      	cmp	r2, #0
   239c4:	f000 80a2 	beq.w	23b0c <hal_ddr3_phy_init+0x490>
   239c8:	e01e      	b.n	23a08 <hal_ddr3_phy_init+0x38c>
   239ca:	bf00      	nop
   239cc:	0001a2a0 	.word	0x0001a2a0
   239d0:	000f4240 	.word	0x000f4240
   239d4:	100bc800 	.word	0x100bc800
   239d8:	20101665 	.word	0x20101665
   239dc:	40608000 	.word	0x40608000
   239e0:	20000007 	.word	0x20000007
   239e4:	f7f7ec0c 	.word	0xf7f7ec0c
   239e8:	00020aa4 	.word	0x00020aa4
   239ec:	220a1118 	.word	0x220a1118
   239f0:	ffff0000 	.word	0xffff0000
   239f4:	00018d20 	.word	0x00018d20
   239f8:	ffff3333 	.word	0xffff3333
   239fc:	ffff1111 	.word	0xffff1111
   23a00:	7c055555 	.word	0x7c055555
   23a04:	ffdfc0fc 	.word	0xffdfc0fc
   23a08:	691a      	ldr	r2, [r3, #16]
   23a0a:	f022 021f 	bic.w	r2, r2, #31
   23a0e:	f042 020d 	orr.w	r2, r2, #13
   23a12:	611a      	str	r2, [r3, #16]
   23a14:	689a      	ldr	r2, [r3, #8]
   23a16:	f042 0201 	orr.w	r2, r2, #1
   23a1a:	609a      	str	r2, [r3, #8]
   23a1c:	f8d3 2098 	ldr.w	r2, [r3, #152]	@ 0x98
   23a20:	f022 52f8 	bic.w	r2, r2, #520093696	@ 0x1f000000
   23a24:	f042 52b8 	orr.w	r2, r2, #385875968	@ 0x17000000
   23a28:	f8c3 2098 	str.w	r2, [r3, #152]	@ 0x98
   23a2c:	689a      	ldr	r2, [r3, #8]
   23a2e:	f442 6280 	orr.w	r2, r2, #1024	@ 0x400
   23a32:	609a      	str	r2, [r3, #8]
   23a34:	691a      	ldr	r2, [r3, #16]
   23a36:	f422 12f8 	bic.w	r2, r2, #2031616	@ 0x1f0000
   23a3a:	f442 12f0 	orr.w	r2, r2, #1966080	@ 0x1e0000
   23a3e:	611a      	str	r2, [r3, #16]
   23a40:	691a      	ldr	r2, [r3, #16]
   23a42:	f022 52f8 	bic.w	r2, r2, #520093696	@ 0x1f000000
   23a46:	f042 52e8 	orr.w	r2, r2, #486539264	@ 0x1d000000
   23a4a:	611a      	str	r2, [r3, #16]
   23a4c:	695a      	ldr	r2, [r3, #20]
   23a4e:	f422 12f8 	bic.w	r2, r2, #2031616	@ 0x1f0000
   23a52:	f442 22c0 	orr.w	r2, r2, #393216	@ 0x60000
   23a56:	615a      	str	r2, [r3, #20]
   23a58:	f8d3 2098 	ldr.w	r2, [r3, #152]	@ 0x98
   23a5c:	f022 021f 	bic.w	r2, r2, #31
   23a60:	f042 0205 	orr.w	r2, r2, #5
   23a64:	f8c3 2098 	str.w	r2, [r3, #152]	@ 0x98
   23a68:	f04f 3288 	mov.w	r2, #2290649224	@ 0x88888888
   23a6c:	4b3e      	ldr	r3, [pc, #248]	@ (23b68 <hal_ddr3_phy_init+0x4ec>)
   23a6e:	f8c3 2460 	str.w	r2, [r3, #1120]	@ 0x460
   23a72:	f8c3 2464 	str.w	r2, [r3, #1124]	@ 0x464
   23a76:	f640 0288 	movw	r2, #2184	@ 0x888
   23a7a:	f8c3 2468 	str.w	r2, [r3, #1128]	@ 0x468
   23a7e:	f8c3 246c 	str.w	r2, [r3, #1132]	@ 0x46c
   23a82:	f8d3 223c 	ldr.w	r2, [r3, #572]	@ 0x23c
   23a86:	f042 0203 	orr.w	r2, r2, #3
   23a8a:	f8c3 223c 	str.w	r2, [r3, #572]	@ 0x23c
   23a8e:	f8d3 223c 	ldr.w	r2, [r3, #572]	@ 0x23c
   23a92:	f042 020c 	orr.w	r2, r2, #12
   23a96:	f8c3 223c 	str.w	r2, [r3, #572]	@ 0x23c
   23a9a:	f8d3 25f8 	ldr.w	r2, [r3, #1528]	@ 0x5f8
   23a9e:	f022 42f8 	bic.w	r2, r2, #2080374784	@ 0x7c000000
   23aa2:	f042 5200 	orr.w	r2, r2, #536870912	@ 0x20000000
   23aa6:	f8c3 25f8 	str.w	r2, [r3, #1528]	@ 0x5f8
   23aaa:	f8d3 25fc 	ldr.w	r2, [r3, #1532]	@ 0x5fc
   23aae:	f022 42f8 	bic.w	r2, r2, #2080374784	@ 0x7c000000
   23ab2:	f042 5210 	orr.w	r2, r2, #603979776	@ 0x24000000
   23ab6:	f8c3 25fc 	str.w	r2, [r3, #1532]	@ 0x5fc
   23aba:	f04f 3210 	mov.w	r2, #269488144	@ 0x10101010
   23abe:	f8c3 2420 	str.w	r2, [r3, #1056]	@ 0x420
   23ac2:	f8c3 2424 	str.w	r2, [r3, #1060]	@ 0x424
   23ac6:	f8c3 2428 	str.w	r2, [r3, #1064]	@ 0x428
   23aca:	f8c3 242c 	str.w	r2, [r3, #1068]	@ 0x42c
   23ace:	f8c3 2438 	str.w	r2, [r3, #1080]	@ 0x438
   23ad2:	f8c3 243c 	str.w	r2, [r3, #1084]	@ 0x43c
   23ad6:	f8c3 2440 	str.w	r2, [r3, #1088]	@ 0x440
   23ada:	f8c3 2444 	str.w	r2, [r3, #1092]	@ 0x444
   23ade:	f8d3 223c 	ldr.w	r2, [r3, #572]	@ 0x23c
   23ae2:	f042 020c 	orr.w	r2, r2, #12
   23ae6:	f8c3 223c 	str.w	r2, [r3, #572]	@ 0x23c
   23aea:	f8d3 2238 	ldr.w	r2, [r3, #568]	@ 0x238
   23aee:	f022 0203 	bic.w	r2, r2, #3
   23af2:	f8c3 2238 	str.w	r2, [r3, #568]	@ 0x238
   23af6:	bd38      	pop	{r3, r4, r5, pc}
   23af8:	2300      	movs	r3, #0
   23afa:	e68d      	b.n	23818 <hal_ddr3_phy_init+0x19c>
   23afc:	2301      	movs	r3, #1
   23afe:	e68b      	b.n	23818 <hal_ddr3_phy_init+0x19c>
   23b00:	2302      	movs	r3, #2
   23b02:	e689      	b.n	23818 <hal_ddr3_phy_init+0x19c>
   23b04:	2303      	movs	r3, #3
   23b06:	e687      	b.n	23818 <hal_ddr3_phy_init+0x19c>
   23b08:	4a18      	ldr	r2, [pc, #96]	@ (23b6c <hal_ddr3_phy_init+0x4f0>)
   23b0a:	e6f2      	b.n	238f2 <hal_ddr3_phy_init+0x276>
   23b0c:	691a      	ldr	r2, [r3, #16]
   23b0e:	f022 021f 	bic.w	r2, r2, #31
   23b12:	f042 0212 	orr.w	r2, r2, #18
   23b16:	611a      	str	r2, [r3, #16]
   23b18:	689a      	ldr	r2, [r3, #8]
   23b1a:	f042 0201 	orr.w	r2, r2, #1
   23b1e:	609a      	str	r2, [r3, #8]
   23b20:	f8d3 2098 	ldr.w	r2, [r3, #152]	@ 0x98
   23b24:	f022 52f8 	bic.w	r2, r2, #520093696	@ 0x1f000000
   23b28:	f042 52d0 	orr.w	r2, r2, #436207616	@ 0x1a000000
   23b2c:	f8c3 2098 	str.w	r2, [r3, #152]	@ 0x98
   23b30:	689a      	ldr	r2, [r3, #8]
   23b32:	f442 6280 	orr.w	r2, r2, #1024	@ 0x400
   23b36:	609a      	str	r2, [r3, #8]
   23b38:	691a      	ldr	r2, [r3, #16]
   23b3a:	f422 12f8 	bic.w	r2, r2, #2031616	@ 0x1f0000
   23b3e:	f442 3280 	orr.w	r2, r2, #65536	@ 0x10000
   23b42:	611a      	str	r2, [r3, #16]
   23b44:	691a      	ldr	r2, [r3, #16]
   23b46:	f022 52f8 	bic.w	r2, r2, #520093696	@ 0x1f000000
   23b4a:	611a      	str	r2, [r3, #16]
   23b4c:	695a      	ldr	r2, [r3, #20]
   23b4e:	f422 12f8 	bic.w	r2, r2, #2031616	@ 0x1f0000
   23b52:	f442 2210 	orr.w	r2, r2, #589824	@ 0x90000
   23b56:	615a      	str	r2, [r3, #20]
   23b58:	f8d3 2098 	ldr.w	r2, [r3, #152]	@ 0x98
   23b5c:	f022 021f 	bic.w	r2, r2, #31
   23b60:	f042 0208 	orr.w	r2, r2, #8
   23b64:	e77e      	b.n	23a64 <hal_ddr3_phy_init+0x3e8>
   23b66:	bf00      	nop
   23b68:	40608000 	.word	0x40608000
   23b6c:	ffff1111 	.word	0xffff1111

00023b70 <hal_init_dram>:
   23b70:	b507      	push	{r0, r1, r2, lr}
   23b72:	4b3c      	ldr	r3, [pc, #240]	@ (23c64 <hal_init_dram+0xf4>)
   23b74:	2200      	movs	r2, #0
   23b76:	a801      	add	r0, sp, #4
   23b78:	9201      	str	r2, [sp, #4]
   23b7a:	f8c3 2080 	str.w	r2, [r3, #128]	@ 0x80
   23b7e:	f8c3 2084 	str.w	r2, [r3, #132]	@ 0x84
   23b82:	2211      	movs	r2, #17
   23b84:	f8c3 2080 	str.w	r2, [r3, #128]	@ 0x80
   23b88:	22d5      	movs	r2, #213	@ 0xd5
   23b8a:	f8c3 2084 	str.w	r2, [r3, #132]	@ 0x84
   23b8e:	f009 fb23 	bl	2d1d8 <hal_sys_get_chip_id>
   23b92:	9a01      	ldr	r2, [sp, #4]
   23b94:	4b34      	ldr	r3, [pc, #208]	@ (23c68 <hal_init_dram+0xf8>)
   23b96:	4935      	ldr	r1, [pc, #212]	@ (23c6c <hal_init_dram+0xfc>)
   23b98:	f8c3 2144 	str.w	r2, [r3, #324]	@ 0x144
   23b9c:	f3c2 4301 	ubfx	r3, r2, #16, #2
   23ba0:	7809      	ldrb	r1, [r1, #0]
   23ba2:	2b03      	cmp	r3, #3
   23ba4:	ea4f 0392 	mov.w	r3, r2, lsr #2
   23ba8:	f003 0303 	and.w	r3, r3, #3
   23bac:	d132      	bne.n	23c14 <hal_init_dram+0xa4>
   23bae:	2b03      	cmp	r3, #3
   23bb0:	d000      	beq.n	23bb4 <hal_init_dram+0x44>
   23bb2:	bb43      	cbnz	r3, 23c06 <hal_init_dram+0x96>
   23bb4:	f012 0f30 	tst.w	r2, #48	@ 0x30
   23bb8:	d127      	bne.n	23c0a <hal_init_dram+0x9a>
   23bba:	4b2d      	ldr	r3, [pc, #180]	@ (23c70 <hal_init_dram+0x100>)
   23bbc:	4a2d      	ldr	r2, [pc, #180]	@ (23c74 <hal_init_dram+0x104>)
   23bbe:	601a      	str	r2, [r3, #0]
   23bc0:	68db      	ldr	r3, [r3, #12]
   23bc2:	4a2d      	ldr	r2, [pc, #180]	@ (23c78 <hal_init_dram+0x108>)
   23bc4:	66da      	str	r2, [r3, #108]	@ 0x6c
   23bc6:	b119      	cbz	r1, 23bd0 <hal_init_dram+0x60>
   23bc8:	4b2c      	ldr	r3, [pc, #176]	@ (23c7c <hal_init_dram+0x10c>)
   23bca:	482d      	ldr	r0, [pc, #180]	@ (23c80 <hal_init_dram+0x110>)
   23bcc:	69db      	ldr	r3, [r3, #28]
   23bce:	4798      	blx	r3
   23bd0:	2302      	movs	r3, #2
   23bd2:	492c      	ldr	r1, [pc, #176]	@ (23c84 <hal_init_dram+0x114>)
   23bd4:	2000      	movs	r0, #0
   23bd6:	2b03      	cmp	r3, #3
   23bd8:	9a01      	ldr	r2, [sp, #4]
   23bda:	6008      	str	r0, [r1, #0]
   23bdc:	d130      	bne.n	23c40 <hal_init_dram+0xd0>
   23bde:	f3c2 7301 	ubfx	r3, r2, #28, #2
   23be2:	2b02      	cmp	r3, #2
   23be4:	d005      	beq.n	23bf2 <hal_init_dram+0x82>
   23be6:	f3c2 4281 	ubfx	r2, r2, #18, #2
   23bea:	2a02      	cmp	r2, #2
   23bec:	d101      	bne.n	23bf2 <hal_init_dram+0x82>
   23bee:	2301      	movs	r3, #1
   23bf0:	600b      	str	r3, [r1, #0]
   23bf2:	f240 7054 	movw	r0, #1876	@ 0x754
   23bf6:	f7ff fd41 	bl	2367c <hal_ddr3_phy_init>
   23bfa:	4923      	ldr	r1, [pc, #140]	@ (23c88 <hal_init_dram+0x118>)
   23bfc:	4823      	ldr	r0, [pc, #140]	@ (23c8c <hal_init_dram+0x11c>)
   23bfe:	f7fe fd0b 	bl	22618 <hal_dramc_perf_tune>
   23c02:	4921      	ldr	r1, [pc, #132]	@ (23c88 <hal_init_dram+0x118>)
   23c04:	e025      	b.n	23c52 <hal_init_dram+0xe2>
   23c06:	2b01      	cmp	r3, #1
   23c08:	d0d7      	beq.n	23bba <hal_init_dram+0x4a>
   23c0a:	2900      	cmp	r1, #0
   23c0c:	d0e0      	beq.n	23bd0 <hal_init_dram+0x60>
   23c0e:	4b1b      	ldr	r3, [pc, #108]	@ (23c7c <hal_init_dram+0x10c>)
   23c10:	481f      	ldr	r0, [pc, #124]	@ (23c90 <hal_init_dram+0x120>)
   23c12:	e7db      	b.n	23bcc <hal_init_dram+0x5c>
   23c14:	2b03      	cmp	r3, #3
   23c16:	d000      	beq.n	23c1a <hal_init_dram+0xaa>
   23c18:	b91b      	cbnz	r3, 23c22 <hal_init_dram+0xb2>
   23c1a:	f3c2 1201 	ubfx	r2, r2, #4, #2
   23c1e:	2a02      	cmp	r2, #2
   23c20:	d103      	bne.n	23c2a <hal_init_dram+0xba>
   23c22:	b159      	cbz	r1, 23c3c <hal_init_dram+0xcc>
   23c24:	4b15      	ldr	r3, [pc, #84]	@ (23c7c <hal_init_dram+0x10c>)
   23c26:	481b      	ldr	r0, [pc, #108]	@ (23c94 <hal_init_dram+0x124>)
   23c28:	e006      	b.n	23c38 <hal_init_dram+0xc8>
   23c2a:	4b17      	ldr	r3, [pc, #92]	@ (23c88 <hal_init_dram+0x118>)
   23c2c:	4a1a      	ldr	r2, [pc, #104]	@ (23c98 <hal_init_dram+0x128>)
   23c2e:	68db      	ldr	r3, [r3, #12]
   23c30:	66da      	str	r2, [r3, #108]	@ 0x6c
   23c32:	b119      	cbz	r1, 23c3c <hal_init_dram+0xcc>
   23c34:	4b11      	ldr	r3, [pc, #68]	@ (23c7c <hal_init_dram+0x10c>)
   23c36:	4819      	ldr	r0, [pc, #100]	@ (23c9c <hal_init_dram+0x12c>)
   23c38:	69db      	ldr	r3, [r3, #28]
   23c3a:	4798      	blx	r3
   23c3c:	2303      	movs	r3, #3
   23c3e:	e7c8      	b.n	23bd2 <hal_init_dram+0x62>
   23c40:	f240 7054 	movw	r0, #1876	@ 0x754
   23c44:	f7ff faf8 	bl	23238 <hal_ddr2_phy_init>
   23c48:	4909      	ldr	r1, [pc, #36]	@ (23c70 <hal_init_dram+0x100>)
   23c4a:	4810      	ldr	r0, [pc, #64]	@ (23c8c <hal_init_dram+0x11c>)
   23c4c:	f7fe fce4 	bl	22618 <hal_dramc_perf_tune>
   23c50:	4907      	ldr	r1, [pc, #28]	@ (23c70 <hal_init_dram+0x100>)
   23c52:	480e      	ldr	r0, [pc, #56]	@ (23c8c <hal_init_dram+0x11c>)
   23c54:	f7fe ffa6 	bl	22ba4 <hal_dramc_init>
   23c58:	4811      	ldr	r0, [pc, #68]	@ (23ca0 <hal_init_dram+0x130>)
   23c5a:	f7fe fca7 	bl	225ac <hal_dramc_ftend_init>
   23c5e:	b003      	add	sp, #12
   23c60:	f85d fb04 	ldr.w	pc, [sp], #4
   23c64:	50000800 	.word	0x50000800
   23c68:	40009000 	.word	0x40009000
   23c6c:	0001a2a0 	.word	0x0001a2a0
   23c70:	00020bcc 	.word	0x00020bcc
   23c74:	00020b4c 	.word	0x00020b4c
   23c78:	00020a44 	.word	0x00020a44
   23c7c:	100bc800 	.word	0x100bc800
   23c80:	20101675 	.word	0x20101675
   23c84:	00018d20 	.word	0x00018d20
   23c88:	00020d1c 	.word	0x00020d1c
   23c8c:	40604000 	.word	0x40604000
   23c90:	2010168f 	.word	0x2010168f
   23c94:	201016aa 	.word	0x201016aa
   23c98:	00020a84 	.word	0x00020a84
   23c9c:	201016c6 	.word	0x201016c6
   23ca0:	40605000 	.word	0x40605000

00023ca4 <dram_set_pll_frequency>:
   23ca4:	f5b0 7fc8 	cmp.w	r0, #400	@ 0x190
   23ca8:	b508      	push	{r3, lr}
   23caa:	d309      	bcc.n	23cc0 <dram_set_pll_frequency+0x1c>
   23cac:	f5b0 7ffa 	cmp.w	r0, #500	@ 0x1f4
   23cb0:	bf3c      	itt	cc
   23cb2:	2301      	movcc	r3, #1
   23cb4:	80cb      	strhcc	r3, [r1, #6]
   23cb6:	f5b0 7fdc 	cmp.w	r0, #440	@ 0x1b8
   23cba:	bf3c      	itt	cc
   23cbc:	2301      	movcc	r3, #1
   23cbe:	800b      	strhcc	r3, [r1, #0]
   23cc0:	888b      	ldrh	r3, [r1, #4]
   23cc2:	884a      	ldrh	r2, [r1, #2]
   23cc4:	011b      	lsls	r3, r3, #4
   23cc6:	ea43 0382 	orr.w	r3, r3, r2, lsl #2
   23cca:	880a      	ldrh	r2, [r1, #0]
   23ccc:	4313      	orrs	r3, r2
   23cce:	88ca      	ldrh	r2, [r1, #6]
   23cd0:	ea43 2302 	orr.w	r3, r3, r2, lsl #8
   23cd4:	890a      	ldrh	r2, [r1, #8]
   23cd6:	ea43 3302 	orr.w	r3, r3, r2, lsl #12
   23cda:	894a      	ldrh	r2, [r1, #10]
   23cdc:	ea43 3342 	orr.w	r3, r3, r2, lsl #13
   23ce0:	898a      	ldrh	r2, [r1, #12]
   23ce2:	ea43 4302 	orr.w	r3, r3, r2, lsl #16
   23ce6:	89ca      	ldrh	r2, [r1, #14]
   23ce8:	ea43 43c2 	orr.w	r3, r3, r2, lsl #19
   23cec:	8a0a      	ldrh	r2, [r1, #16]
   23cee:	ea43 5382 	orr.w	r3, r3, r2, lsl #22
   23cf2:	8a4a      	ldrh	r2, [r1, #18]
   23cf4:	ea43 53c2 	orr.w	r3, r3, r2, lsl #23
   23cf8:	8a8a      	ldrh	r2, [r1, #20]
   23cfa:	ea43 6342 	orr.w	r3, r3, r2, lsl #25
   23cfe:	8aca      	ldrh	r2, [r1, #22]
   23d00:	8b09      	ldrh	r1, [r1, #24]
   23d02:	ea43 63c2 	orr.w	r3, r3, r2, lsl #27
   23d06:	ea43 7141 	orr.w	r1, r3, r1, lsl #29
   23d0a:	4b06      	ldr	r3, [pc, #24]	@ (23d24 <dram_set_pll_frequency+0x80>)
   23d0c:	6199      	str	r1, [r3, #24]
   23d0e:	4b06      	ldr	r3, [pc, #24]	@ (23d28 <dram_set_pll_frequency+0x84>)
   23d10:	685b      	ldr	r3, [r3, #4]
   23d12:	681b      	ldr	r3, [r3, #0]
   23d14:	005b      	lsls	r3, r3, #1
   23d16:	d503      	bpl.n	23d20 <dram_set_pll_frequency+0x7c>
   23d18:	4b04      	ldr	r3, [pc, #16]	@ (23d2c <dram_set_pll_frequency+0x88>)
   23d1a:	4805      	ldr	r0, [pc, #20]	@ (23d30 <dram_set_pll_frequency+0x8c>)
   23d1c:	69db      	ldr	r3, [r3, #28]
   23d1e:	4798      	blx	r3
   23d20:	bd08      	pop	{r3, pc}
   23d22:	bf00      	nop
   23d24:	40608000 	.word	0x40608000
   23d28:	10000e10 	.word	0x10000e10
   23d2c:	100bc800 	.word	0x100bc800
   23d30:	201016e2 	.word	0x201016e2

00023d34 <dram_init_clk_frequency_dss>:
   23d34:	f44f 737a 	mov.w	r3, #1000	@ 0x3e8
   23d38:	e92d 4ff7 	stmdb	sp!, {r0, r1, r2, r4, r5, r6, r7, r8, r9, sl, fp, lr}
   23d3c:	fb03 f400 	mul.w	r4, r3, r0
   23d40:	2228      	movs	r2, #40	@ 0x28
   23d42:	4e5e      	ldr	r6, [pc, #376]	@ (23ebc <dram_init_clk_frequency_dss+0x188>)
   23d44:	460d      	mov	r5, r1
   23d46:	fbb0 f7f2 	udiv	r7, r0, r2
   23d4a:	fbb4 f4f2 	udiv	r4, r4, r2
   23d4e:	f1a7 0a03 	sub.w	sl, r7, #3
   23d52:	f6a4 34b8 	subw	r4, r4, #3000	@ 0xbb8
   23d56:	fb03 441a 	mls	r4, r3, sl, r4
   23d5a:	02e4      	lsls	r4, r4, #11
   23d5c:	fbb4 f4f3 	udiv	r4, r4, r3
   23d60:	6873      	ldr	r3, [r6, #4]
   23d62:	681b      	ldr	r3, [r3, #0]
   23d64:	0058      	lsls	r0, r3, #1
   23d66:	d505      	bpl.n	23d74 <dram_init_clk_frequency_dss+0x40>
   23d68:	4b55      	ldr	r3, [pc, #340]	@ (23ec0 <dram_init_clk_frequency_dss+0x18c>)
   23d6a:	4622      	mov	r2, r4
   23d6c:	4651      	mov	r1, sl
   23d6e:	4855      	ldr	r0, [pc, #340]	@ (23ec4 <dram_init_clk_frequency_dss+0x190>)
   23d70:	69db      	ldr	r3, [r3, #28]
   23d72:	4798      	blx	r3
   23d74:	ea4f 4804 	mov.w	r8, r4, lsl #16
   23d78:	ea4f 290a 	mov.w	r9, sl, lsl #8
   23d7c:	2d00      	cmp	r5, #0
   23d7e:	f000 808d 	beq.w	23e9c <dram_init_clk_frequency_dss+0x168>
   23d82:	6873      	ldr	r3, [r6, #4]
   23d84:	eb04 27c7 	add.w	r7, r4, r7, lsl #11
   23d88:	f1c5 0564 	rsb	r5, r5, #100	@ 0x64
   23d8c:	f04f 0b64 	mov.w	fp, #100	@ 0x64
   23d90:	681b      	ldr	r3, [r3, #0]
   23d92:	437d      	muls	r5, r7
   23d94:	0059      	lsls	r1, r3, #1
   23d96:	fbb5 fbfb 	udiv	fp, r5, fp
   23d9a:	d504      	bpl.n	23da6 <dram_init_clk_frequency_dss+0x72>
   23d9c:	4b48      	ldr	r3, [pc, #288]	@ (23ec0 <dram_init_clk_frequency_dss+0x18c>)
   23d9e:	4659      	mov	r1, fp
   23da0:	4849      	ldr	r0, [pc, #292]	@ (23ec8 <dram_init_clk_frequency_dss+0x194>)
   23da2:	69db      	ldr	r3, [r3, #28]
   23da4:	4798      	blx	r3
   23da6:	f44f 3748 	mov.w	r7, #204800	@ 0x32000
   23daa:	fbb5 f5f7 	udiv	r5, r5, r7
   23dae:	02eb      	lsls	r3, r5, #11
   23db0:	1eef      	subs	r7, r5, #3
   23db2:	ebab 25c5 	sub.w	r5, fp, r5, lsl #11
   23db6:	9301      	str	r3, [sp, #4]
   23db8:	6873      	ldr	r3, [r6, #4]
   23dba:	681b      	ldr	r3, [r3, #0]
   23dbc:	005a      	lsls	r2, r3, #1
   23dbe:	d505      	bpl.n	23dcc <dram_init_clk_frequency_dss+0x98>
   23dc0:	4b3f      	ldr	r3, [pc, #252]	@ (23ec0 <dram_init_clk_frequency_dss+0x18c>)
   23dc2:	462a      	mov	r2, r5
   23dc4:	4639      	mov	r1, r7
   23dc6:	4841      	ldr	r0, [pc, #260]	@ (23ecc <dram_init_clk_frequency_dss+0x198>)
   23dc8:	69db      	ldr	r3, [r3, #28]
   23dca:	4798      	blx	r3
   23dcc:	eb04 21ca 	add.w	r1, r4, sl, lsl #11
   23dd0:	9b01      	ldr	r3, [sp, #4]
   23dd2:	f240 225e 	movw	r2, #606	@ 0x25e
   23dd6:	4419      	add	r1, r3
   23dd8:	6873      	ldr	r3, [r6, #4]
   23dda:	eba1 010b 	sub.w	r1, r1, fp
   23dde:	681b      	ldr	r3, [r3, #0]
   23de0:	eba1 21c7 	sub.w	r1, r1, r7, lsl #11
   23de4:	005b      	lsls	r3, r3, #1
   23de6:	ea4f 2ac1 	mov.w	sl, r1, lsl #11
   23dea:	fbba faf2 	udiv	sl, sl, r2
   23dee:	d504      	bpl.n	23dfa <dram_init_clk_frequency_dss+0xc6>
   23df0:	4c33      	ldr	r4, [pc, #204]	@ (23ec0 <dram_init_clk_frequency_dss+0x18c>)
   23df2:	4653      	mov	r3, sl
   23df4:	4836      	ldr	r0, [pc, #216]	@ (23ed0 <dram_init_clk_frequency_dss+0x19c>)
   23df6:	69e4      	ldr	r4, [r4, #28]
   23df8:	47a0      	blx	r4
   23dfa:	4b36      	ldr	r3, [pc, #216]	@ (23ed4 <dram_init_clk_frequency_dss+0x1a0>)
   23dfc:	69da      	ldr	r2, [r3, #28]
   23dfe:	f022 0202 	bic.w	r2, r2, #2
   23e02:	61da      	str	r2, [r3, #28]
   23e04:	6872      	ldr	r2, [r6, #4]
   23e06:	6812      	ldr	r2, [r2, #0]
   23e08:	0052      	lsls	r2, r2, #1
   23e0a:	d504      	bpl.n	23e16 <dram_init_clk_frequency_dss+0xe2>
   23e0c:	69d9      	ldr	r1, [r3, #28]
   23e0e:	4b2c      	ldr	r3, [pc, #176]	@ (23ec0 <dram_init_clk_frequency_dss+0x18c>)
   23e10:	4831      	ldr	r0, [pc, #196]	@ (23ed8 <dram_init_clk_frequency_dss+0x1a4>)
   23e12:	69db      	ldr	r3, [r3, #28]
   23e14:	4798      	blx	r3
   23e16:	4a31      	ldr	r2, [pc, #196]	@ (23edc <dram_init_clk_frequency_dss+0x1a8>)
   23e18:	f44a 0180 	orr.w	r1, sl, #4194304	@ 0x400000
   23e1c:	4830      	ldr	r0, [pc, #192]	@ (23ee0 <dram_init_clk_frequency_dss+0x1ac>)
   23e1e:	f7ff fa05 	bl	2322c <cpu_read_modify_write>
   23e22:	6873      	ldr	r3, [r6, #4]
   23e24:	681b      	ldr	r3, [r3, #0]
   23e26:	005c      	lsls	r4, r3, #1
   23e28:	d505      	bpl.n	23e36 <dram_init_clk_frequency_dss+0x102>
   23e2a:	4b2a      	ldr	r3, [pc, #168]	@ (23ed4 <dram_init_clk_frequency_dss+0x1a0>)
   23e2c:	482d      	ldr	r0, [pc, #180]	@ (23ee4 <dram_init_clk_frequency_dss+0x1b0>)
   23e2e:	6a19      	ldr	r1, [r3, #32]
   23e30:	4b23      	ldr	r3, [pc, #140]	@ (23ec0 <dram_init_clk_frequency_dss+0x18c>)
   23e32:	69db      	ldr	r3, [r3, #28]
   23e34:	4798      	blx	r3
   23e36:	482c      	ldr	r0, [pc, #176]	@ (23ee8 <dram_init_clk_frequency_dss+0x1b4>)
   23e38:	f06f 22f8 	mvn.w	r2, #4160813056	@ 0xf800f800
   23e3c:	ea48 0105 	orr.w	r1, r8, r5
   23e40:	f7ff f9f4 	bl	2322c <cpu_read_modify_write>
   23e44:	6873      	ldr	r3, [r6, #4]
   23e46:	681b      	ldr	r3, [r3, #0]
   23e48:	0058      	lsls	r0, r3, #1
   23e4a:	d505      	bpl.n	23e58 <dram_init_clk_frequency_dss+0x124>
   23e4c:	4b21      	ldr	r3, [pc, #132]	@ (23ed4 <dram_init_clk_frequency_dss+0x1a0>)
   23e4e:	4827      	ldr	r0, [pc, #156]	@ (23eec <dram_init_clk_frequency_dss+0x1b8>)
   23e50:	6a59      	ldr	r1, [r3, #36]	@ 0x24
   23e52:	4b1b      	ldr	r3, [pc, #108]	@ (23ec0 <dram_init_clk_frequency_dss+0x18c>)
   23e54:	69db      	ldr	r3, [r3, #28]
   23e56:	4798      	blx	r3
   23e58:	f64f 72ff 	movw	r2, #65535	@ 0xffff
   23e5c:	ea49 0107 	orr.w	r1, r9, r7
   23e60:	4823      	ldr	r0, [pc, #140]	@ (23ef0 <dram_init_clk_frequency_dss+0x1bc>)
   23e62:	f7ff f9e3 	bl	2322c <cpu_read_modify_write>
   23e66:	6873      	ldr	r3, [r6, #4]
   23e68:	4c1a      	ldr	r4, [pc, #104]	@ (23ed4 <dram_init_clk_frequency_dss+0x1a0>)
   23e6a:	681b      	ldr	r3, [r3, #0]
   23e6c:	f013 4f80 	tst.w	r3, #1073741824	@ 0x40000000
   23e70:	d004      	beq.n	23e7c <dram_init_clk_frequency_dss+0x148>
   23e72:	4b13      	ldr	r3, [pc, #76]	@ (23ec0 <dram_init_clk_frequency_dss+0x18c>)
   23e74:	6aa1      	ldr	r1, [r4, #40]	@ 0x28
   23e76:	481f      	ldr	r0, [pc, #124]	@ (23ef4 <dram_init_clk_frequency_dss+0x1c0>)
   23e78:	69db      	ldr	r3, [r3, #28]
   23e7a:	4798      	blx	r3
   23e7c:	69e3      	ldr	r3, [r4, #28]
   23e7e:	f043 030a 	orr.w	r3, r3, #10
   23e82:	61e3      	str	r3, [r4, #28]
   23e84:	6873      	ldr	r3, [r6, #4]
   23e86:	681b      	ldr	r3, [r3, #0]
   23e88:	0059      	lsls	r1, r3, #1
   23e8a:	d504      	bpl.n	23e96 <dram_init_clk_frequency_dss+0x162>
   23e8c:	4b0c      	ldr	r3, [pc, #48]	@ (23ec0 <dram_init_clk_frequency_dss+0x18c>)
   23e8e:	69e1      	ldr	r1, [r4, #28]
   23e90:	4811      	ldr	r0, [pc, #68]	@ (23ed8 <dram_init_clk_frequency_dss+0x1a4>)
   23e92:	69db      	ldr	r3, [r3, #28]
   23e94:	4798      	blx	r3
   23e96:	b003      	add	sp, #12
   23e98:	e8bd 8ff0 	ldmia.w	sp!, {r4, r5, r6, r7, r8, r9, sl, fp, pc}
   23e9c:	ea48 0104 	orr.w	r1, r8, r4
   23ea0:	f06f 22f8 	mvn.w	r2, #4160813056	@ 0xf800f800
   23ea4:	4810      	ldr	r0, [pc, #64]	@ (23ee8 <dram_init_clk_frequency_dss+0x1b4>)
   23ea6:	f7ff f9c1 	bl	2322c <cpu_read_modify_write>
   23eaa:	f64f 72ff 	movw	r2, #65535	@ 0xffff
   23eae:	ea49 010a 	orr.w	r1, r9, sl
   23eb2:	480f      	ldr	r0, [pc, #60]	@ (23ef0 <dram_init_clk_frequency_dss+0x1bc>)
   23eb4:	f7ff f9ba 	bl	2322c <cpu_read_modify_write>
   23eb8:	e7ed      	b.n	23e96 <dram_init_clk_frequency_dss+0x162>
   23eba:	bf00      	nop
   23ebc:	10000e10 	.word	0x10000e10
   23ec0:	100bc800 	.word	0x100bc800
   23ec4:	20101701 	.word	0x20101701
   23ec8:	2010172b 	.word	0x2010172b
   23ecc:	20101743 	.word	0x20101743
   23ed0:	20101769 	.word	0x20101769
   23ed4:	40608000 	.word	0x40608000
   23ed8:	201017aa 	.word	0x201017aa
   23edc:	0077ffff 	.word	0x0077ffff
   23ee0:	40608020 	.word	0x40608020
   23ee4:	201017d3 	.word	0x201017d3
   23ee8:	40608024 	.word	0x40608024
   23eec:	201017fc 	.word	0x201017fc
   23ef0:	40608028 	.word	0x40608028
   23ef4:	20101825 	.word	0x20101825

00023ef8 <g_crypto_handler>:
   23ef8:	2800      	cmp	r0, #0
   23efa:	bfc2      	ittt	gt
   23efc:	4b03      	ldrgt	r3, [pc, #12]	@ (23f0c <g_crypto_handler+0x14>)
   23efe:	2201      	movgt	r2, #1
   23f00:	601a      	strgt	r2, [r3, #0]
   23f02:	b111      	cbz	r1, 23f0a <g_crypto_handler+0x12>
   23f04:	4b02      	ldr	r3, [pc, #8]	@ (23f10 <g_crypto_handler+0x18>)
   23f06:	2201      	movs	r2, #1
   23f08:	601a      	str	r2, [r3, #0]
   23f0a:	4770      	bx	lr
   23f0c:	00018d28 	.word	0x00018d28
   23f10:	00018d24 	.word	0x00018d24

00023f14 <g_crypto_pre_exec>:
   23f14:	2000      	movs	r0, #0
   23f16:	4b01      	ldr	r3, [pc, #4]	@ (23f1c <g_crypto_pre_exec+0x8>)
   23f18:	6018      	str	r0, [r3, #0]
   23f1a:	4770      	bx	lr
   23f1c:	00018d28 	.word	0x00018d28

00023f20 <crypto_handler>:
   23f20:	4b14      	ldr	r3, [pc, #80]	@ (23f74 <crypto_handler+0x54>)
   23f22:	b513      	push	{r0, r1, r4, lr}
   23f24:	681c      	ldr	r4, [r3, #0]
   23f26:	4b14      	ldr	r3, [pc, #80]	@ (23f78 <crypto_handler+0x58>)
   23f28:	691a      	ldr	r2, [r3, #16]
   23f2a:	f3c2 2207 	ubfx	r2, r2, #8, #8
   23f2e:	9200      	str	r2, [sp, #0]
   23f30:	9a00      	ldr	r2, [sp, #0]
   23f32:	b14a      	cbz	r2, 23f48 <crypto_handler+0x28>
   23f34:	9a00      	ldr	r2, [sp, #0]
   23f36:	6919      	ldr	r1, [r3, #16]
   23f38:	b2d2      	uxtb	r2, r2
   23f3a:	f362 4117 	bfi	r1, r2, #16, #8
   23f3e:	6119      	str	r1, [r3, #16]
   23f40:	691a      	ldr	r2, [r3, #16]
   23f42:	f042 0210 	orr.w	r2, r2, #16
   23f46:	611a      	str	r2, [r3, #16]
   23f48:	4b0b      	ldr	r3, [pc, #44]	@ (23f78 <crypto_handler+0x58>)
   23f4a:	f8d3 2118 	ldr.w	r2, [r3, #280]	@ 0x118
   23f4e:	f3c2 0240 	ubfx	r2, r2, #1, #1
   23f52:	9201      	str	r2, [sp, #4]
   23f54:	9901      	ldr	r1, [sp, #4]
   23f56:	b131      	cbz	r1, 23f66 <crypto_handler+0x46>
   23f58:	f8d3 2118 	ldr.w	r2, [r3, #280]	@ 0x118
   23f5c:	2101      	movs	r1, #1
   23f5e:	f042 0202 	orr.w	r2, r2, #2
   23f62:	f8c3 2118 	str.w	r2, [r3, #280]	@ 0x118
   23f66:	9800      	ldr	r0, [sp, #0]
   23f68:	47a0      	blx	r4
   23f6a:	f3bf 8f4f 	dsb	sy
   23f6e:	b002      	add	sp, #8
   23f70:	bd10      	pop	{r4, pc}
   23f72:	bf00      	nop
   23f74:	00018d2c 	.word	0x00018d2c
   23f78:	50070000 	.word	0x50070000

00023f7c <g_crypto_wait_done>:
   23f7c:	b537      	push	{r0, r1, r2, r4, r5, lr}
   23f7e:	7940      	ldrb	r0, [r0, #5]
   23f80:	b9f0      	cbnz	r0, 23fc0 <g_crypto_wait_done+0x44>
   23f82:	b003      	add	sp, #12
   23f84:	bd30      	pop	{r4, r5, pc}
   23f86:	3b01      	subs	r3, #1
   23f88:	d11c      	bne.n	23fc4 <g_crypto_wait_done+0x48>
   23f8a:	4b11      	ldr	r3, [pc, #68]	@ (23fd0 <g_crypto_wait_done+0x54>)
   23f8c:	4d11      	ldr	r5, [pc, #68]	@ (23fd4 <g_crypto_wait_done+0x58>)
   23f8e:	691a      	ldr	r2, [r3, #16]
   23f90:	9201      	str	r2, [sp, #4]
   23f92:	8b9b      	ldrh	r3, [r3, #28]
   23f94:	b29b      	uxth	r3, r3
   23f96:	9300      	str	r3, [sp, #0]
   23f98:	682b      	ldr	r3, [r5, #0]
   23f9a:	681b      	ldr	r3, [r3, #0]
   23f9c:	05da      	lsls	r2, r3, #23
   23f9e:	d402      	bmi.n	23fa6 <g_crypto_wait_done+0x2a>
   23fa0:	f04f 30ff 	mov.w	r0, #4294967295	@ 0xffffffff
   23fa4:	e7ed      	b.n	23f82 <g_crypto_wait_done+0x6>
   23fa6:	4b0c      	ldr	r3, [pc, #48]	@ (23fd8 <g_crypto_wait_done+0x5c>)
   23fa8:	480c      	ldr	r0, [pc, #48]	@ (23fdc <g_crypto_wait_done+0x60>)
   23faa:	69dc      	ldr	r4, [r3, #28]
   23fac:	47a0      	blx	r4
   23fae:	682b      	ldr	r3, [r5, #0]
   23fb0:	681b      	ldr	r3, [r3, #0]
   23fb2:	05db      	lsls	r3, r3, #23
   23fb4:	d5f4      	bpl.n	23fa0 <g_crypto_wait_done+0x24>
   23fb6:	9901      	ldr	r1, [sp, #4]
   23fb8:	4809      	ldr	r0, [pc, #36]	@ (23fe0 <g_crypto_wait_done+0x64>)
   23fba:	9a00      	ldr	r2, [sp, #0]
   23fbc:	47a0      	blx	r4
   23fbe:	e7ef      	b.n	23fa0 <g_crypto_wait_done+0x24>
   23fc0:	4b08      	ldr	r3, [pc, #32]	@ (23fe4 <g_crypto_wait_done+0x68>)
   23fc2:	4909      	ldr	r1, [pc, #36]	@ (23fe8 <g_crypto_wait_done+0x6c>)
   23fc4:	680a      	ldr	r2, [r1, #0]
   23fc6:	2a00      	cmp	r2, #0
   23fc8:	d0dd      	beq.n	23f86 <g_crypto_wait_done+0xa>
   23fca:	2000      	movs	r0, #0
   23fcc:	e7d9      	b.n	23f82 <g_crypto_wait_done+0x6>
   23fce:	bf00      	nop
   23fd0:	50070000 	.word	0x50070000
   23fd4:	10000e10 	.word	0x10000e10
   23fd8:	100bc800 	.word	0x100bc800
   23fdc:	2010184e 	.word	0x2010184e
   23fe0:	2010187c 	.word	0x2010187c
   23fe4:	00989680 	.word	0x00989680
   23fe8:	00018d28 	.word	0x00018d28

00023fec <hal_crypto_engine_init_platform>:
   23fec:	b538      	push	{r3, r4, r5, lr}
   23fee:	79c3      	ldrb	r3, [r0, #7]
   23ff0:	4604      	mov	r4, r0
   23ff2:	460d      	mov	r5, r1
   23ff4:	075b      	lsls	r3, r3, #29
   23ff6:	d407      	bmi.n	24008 <hal_crypto_engine_init_platform+0x1c>
   23ff8:	4b0a      	ldr	r3, [pc, #40]	@ (24024 <hal_crypto_engine_init_platform+0x38>)
   23ffa:	781b      	ldrb	r3, [r3, #0]
   23ffc:	2b01      	cmp	r3, #1
   23ffe:	b2d8      	uxtb	r0, r3
   24000:	d108      	bne.n	24014 <hal_crypto_engine_init_platform+0x28>
   24002:	b2c9      	uxtb	r1, r1
   24004:	f009 f962 	bl	2d2cc <hal_sys_lxbus_shared_en>
   24008:	79e3      	ldrb	r3, [r4, #7]
   2400a:	b145      	cbz	r5, 2401e <hal_crypto_engine_init_platform+0x32>
   2400c:	f043 0302 	orr.w	r3, r3, #2
   24010:	71e3      	strb	r3, [r4, #7]
   24012:	bd38      	pop	{r3, r4, r5, pc}
   24014:	4b04      	ldr	r3, [pc, #16]	@ (24028 <hal_crypto_engine_init_platform+0x3c>)
   24016:	4608      	mov	r0, r1
   24018:	689b      	ldr	r3, [r3, #8]
   2401a:	4798      	blx	r3
   2401c:	e7f4      	b.n	24008 <hal_crypto_engine_init_platform+0x1c>
   2401e:	f003 03fd 	and.w	r3, r3, #253	@ 0xfd
   24022:	e7f5      	b.n	24010 <hal_crypto_engine_init_platform+0x24>
   24024:	00018d30 	.word	0x00018d30
   24028:	10000130 	.word	0x10000130

0002402c <hal_crypto_engine_chk_init>:
   2402c:	4b02      	ldr	r3, [pc, #8]	@ (24038 <hal_crypto_engine_chk_init+0xc>)
   2402e:	7918      	ldrb	r0, [r3, #4]
   24030:	1e43      	subs	r3, r0, #1
   24032:	4258      	negs	r0, r3
   24034:	4158      	adcs	r0, r3
   24036:	4770      	bx	lr
   24038:	20105200 	.word	0x20105200

0002403c <hal_crypto_engine_key_stg_deinit>:
   2403c:	b508      	push	{r3, lr}
   2403e:	2100      	movs	r1, #0
   24040:	2017      	movs	r0, #23
   24042:	f009 f8f7 	bl	2d234 <hal_sys_peripheral_en>
   24046:	4b02      	ldr	r3, [pc, #8]	@ (24050 <hal_crypto_engine_key_stg_deinit+0x14>)
   24048:	2200      	movs	r2, #0
   2404a:	701a      	strb	r2, [r3, #0]
   2404c:	bd08      	pop	{r3, pc}
   2404e:	bf00      	nop
   24050:	00018d30 	.word	0x00018d30

00024054 <hal_crypto_irq_enable>:
   24054:	b538      	push	{r3, r4, r5, lr}
   24056:	4c0f      	ldr	r4, [pc, #60]	@ (24094 <hal_crypto_irq_enable+0x40>)
   24058:	4605      	mov	r5, r0
   2405a:	4b0f      	ldr	r3, [pc, #60]	@ (24098 <hal_crypto_irq_enable+0x44>)
   2405c:	202c      	movs	r0, #44	@ 0x2c
   2405e:	6019      	str	r1, [r3, #0]
   24060:	490e      	ldr	r1, [pc, #56]	@ (2409c <hal_crypto_irq_enable+0x48>)
   24062:	6a23      	ldr	r3, [r4, #32]
   24064:	4798      	blx	r3
   24066:	6ba3      	ldr	r3, [r4, #56]	@ 0x38
   24068:	202c      	movs	r0, #44	@ 0x2c
   2406a:	4798      	blx	r3
   2406c:	6aa3      	ldr	r3, [r4, #40]	@ 0x28
   2406e:	2109      	movs	r1, #9
   24070:	202c      	movs	r0, #44	@ 0x2c
   24072:	4798      	blx	r3
   24074:	4b0a      	ldr	r3, [pc, #40]	@ (240a0 <hal_crypto_irq_enable+0x4c>)
   24076:	202c      	movs	r0, #44	@ 0x2c
   24078:	691a      	ldr	r2, [r3, #16]
   2407a:	f042 0280 	orr.w	r2, r2, #128	@ 0x80
   2407e:	611a      	str	r2, [r3, #16]
   24080:	695a      	ldr	r2, [r3, #20]
   24082:	f36f 0200 	bfc	r2, #0, #1
   24086:	615a      	str	r2, [r3, #20]
   24088:	69a3      	ldr	r3, [r4, #24]
   2408a:	4798      	blx	r3
   2408c:	2301      	movs	r3, #1
   2408e:	716b      	strb	r3, [r5, #5]
   24090:	bd38      	pop	{r3, r4, r5, pc}
   24092:	bf00      	nop
   24094:	100000e0 	.word	0x100000e0
   24098:	00018d2c 	.word	0x00018d2c
   2409c:	00023f21 	.word	0x00023f21
   240a0:	50070000 	.word	0x50070000

000240a4 <hal_crypto_engine_init>:
   240a4:	b538      	push	{r3, r4, r5, lr}
   240a6:	4c19      	ldr	r4, [pc, #100]	@ (2410c <hal_crypto_engine_init+0x68>)
   240a8:	7923      	ldrb	r3, [r4, #4]
   240aa:	b163      	cbz	r3, 240c6 <hal_crypto_engine_init+0x22>
   240ac:	4b18      	ldr	r3, [pc, #96]	@ (24110 <hal_crypto_engine_init+0x6c>)
   240ae:	685b      	ldr	r3, [r3, #4]
   240b0:	681d      	ldr	r5, [r3, #0]
   240b2:	f415 7580 	ands.w	r5, r5, #256	@ 0x100
   240b6:	d004      	beq.n	240c2 <hal_crypto_engine_init+0x1e>
   240b8:	4b16      	ldr	r3, [pc, #88]	@ (24114 <hal_crypto_engine_init+0x70>)
   240ba:	2500      	movs	r5, #0
   240bc:	4816      	ldr	r0, [pc, #88]	@ (24118 <hal_crypto_engine_init+0x74>)
   240be:	69db      	ldr	r3, [r3, #28]
   240c0:	4798      	blx	r3
   240c2:	4628      	mov	r0, r5
   240c4:	bd38      	pop	{r3, r4, r5, pc}
   240c6:	71a3      	strb	r3, [r4, #6]
   240c8:	2101      	movs	r1, #1
   240ca:	4b14      	ldr	r3, [pc, #80]	@ (2411c <hal_crypto_engine_init+0x78>)
   240cc:	4620      	mov	r0, r4
   240ce:	f8c4 354c 	str.w	r3, [r4, #1356]	@ 0x54c
   240d2:	4b13      	ldr	r3, [pc, #76]	@ (24120 <hal_crypto_engine_init+0x7c>)
   240d4:	f8c4 3550 	str.w	r3, [r4, #1360]	@ 0x550
   240d8:	f7ff ff88 	bl	23fec <hal_crypto_engine_init_platform>
   240dc:	79e3      	ldrb	r3, [r4, #7]
   240de:	4620      	mov	r0, r4
   240e0:	f043 0301 	orr.w	r3, r3, #1
   240e4:	71e3      	strb	r3, [r4, #7]
   240e6:	4b0f      	ldr	r3, [pc, #60]	@ (24124 <hal_crypto_engine_init+0x80>)
   240e8:	681b      	ldr	r3, [r3, #0]
   240ea:	4798      	blx	r3
   240ec:	4605      	mov	r5, r0
   240ee:	2800      	cmp	r0, #0
   240f0:	d1e7      	bne.n	240c2 <hal_crypto_engine_init+0x1e>
   240f2:	4b0d      	ldr	r3, [pc, #52]	@ (24128 <hal_crypto_engine_init+0x84>)
   240f4:	4620      	mov	r0, r4
   240f6:	490d      	ldr	r1, [pc, #52]	@ (2412c <hal_crypto_engine_init+0x88>)
   240f8:	6a5a      	ldr	r2, [r3, #36]	@ 0x24
   240fa:	6a1b      	ldr	r3, [r3, #32]
   240fc:	f8c4 2540 	str.w	r2, [r4, #1344]	@ 0x540
   24100:	f8c4 3544 	str.w	r3, [r4, #1348]	@ 0x544
   24104:	f7ff ffa6 	bl	24054 <hal_crypto_irq_enable>
   24108:	e7db      	b.n	240c2 <hal_crypto_engine_init+0x1e>
   2410a:	bf00      	nop
   2410c:	20105200 	.word	0x20105200
   24110:	10000e10 	.word	0x10000e10
   24114:	100bc800 	.word	0x100bc800
   24118:	201018bc 	.word	0x201018bc
   2411c:	00023f15 	.word	0x00023f15
   24120:	00023f7d 	.word	0x00023f7d
   24124:	10000130 	.word	0x10000130
   24128:	10000a60 	.word	0x10000a60
   2412c:	00023ef9 	.word	0x00023ef9

00024130 <hal_crypto_irq_disable>:
   24130:	b538      	push	{r3, r4, r5, lr}
   24132:	7943      	ldrb	r3, [r0, #5]
   24134:	4604      	mov	r4, r0
   24136:	b173      	cbz	r3, 24156 <hal_crypto_irq_disable+0x26>
   24138:	4a07      	ldr	r2, [pc, #28]	@ (24158 <hal_crypto_irq_disable+0x28>)
   2413a:	202c      	movs	r0, #44	@ 0x2c
   2413c:	4d07      	ldr	r5, [pc, #28]	@ (2415c <hal_crypto_irq_disable+0x2c>)
   2413e:	6953      	ldr	r3, [r2, #20]
   24140:	f043 0301 	orr.w	r3, r3, #1
   24144:	6153      	str	r3, [r2, #20]
   24146:	69eb      	ldr	r3, [r5, #28]
   24148:	4798      	blx	r3
   2414a:	6a2b      	ldr	r3, [r5, #32]
   2414c:	2100      	movs	r1, #0
   2414e:	202c      	movs	r0, #44	@ 0x2c
   24150:	4798      	blx	r3
   24152:	2300      	movs	r3, #0
   24154:	7163      	strb	r3, [r4, #5]
   24156:	bd38      	pop	{r3, r4, r5, pc}
   24158:	50070000 	.word	0x50070000
   2415c:	100000e0 	.word	0x100000e0

00024160 <hal_crypto_engine_deinit>:
   24160:	b570      	push	{r4, r5, r6, lr}
   24162:	4d16      	ldr	r5, [pc, #88]	@ (241bc <hal_crypto_engine_deinit+0x5c>)
   24164:	792e      	ldrb	r6, [r5, #4]
   24166:	b966      	cbnz	r6, 24182 <hal_crypto_engine_deinit+0x22>
   24168:	4b15      	ldr	r3, [pc, #84]	@ (241c0 <hal_crypto_engine_deinit+0x60>)
   2416a:	685b      	ldr	r3, [r3, #4]
   2416c:	681c      	ldr	r4, [r3, #0]
   2416e:	f414 7480 	ands.w	r4, r4, #256	@ 0x100
   24172:	d004      	beq.n	2417e <hal_crypto_engine_deinit+0x1e>
   24174:	4b13      	ldr	r3, [pc, #76]	@ (241c4 <hal_crypto_engine_deinit+0x64>)
   24176:	4634      	mov	r4, r6
   24178:	4813      	ldr	r0, [pc, #76]	@ (241c8 <hal_crypto_engine_deinit+0x68>)
   2417a:	69db      	ldr	r3, [r3, #28]
   2417c:	4798      	blx	r3
   2417e:	4620      	mov	r0, r4
   24180:	bd70      	pop	{r4, r5, r6, pc}
   24182:	2300      	movs	r3, #0
   24184:	4628      	mov	r0, r5
   24186:	f8c5 354c 	str.w	r3, [r5, #1356]	@ 0x54c
   2418a:	f8c5 3550 	str.w	r3, [r5, #1360]	@ 0x550
   2418e:	f8c5 3540 	str.w	r3, [r5, #1344]	@ 0x540
   24192:	f8c5 3544 	str.w	r3, [r5, #1348]	@ 0x544
   24196:	f7ff ffcb 	bl	24130 <hal_crypto_irq_disable>
   2419a:	4b0c      	ldr	r3, [pc, #48]	@ (241cc <hal_crypto_engine_deinit+0x6c>)
   2419c:	4628      	mov	r0, r5
   2419e:	685b      	ldr	r3, [r3, #4]
   241a0:	4798      	blx	r3
   241a2:	4604      	mov	r4, r0
   241a4:	2800      	cmp	r0, #0
   241a6:	d1ea      	bne.n	2417e <hal_crypto_engine_deinit+0x1e>
   241a8:	4601      	mov	r1, r0
   241aa:	4628      	mov	r0, r5
   241ac:	f7ff ff1e 	bl	23fec <hal_crypto_engine_init_platform>
   241b0:	79eb      	ldrb	r3, [r5, #7]
   241b2:	f023 0301 	bic.w	r3, r3, #1
   241b6:	71eb      	strb	r3, [r5, #7]
   241b8:	e7e1      	b.n	2417e <hal_crypto_engine_deinit+0x1e>
   241ba:	bf00      	nop
   241bc:	20105200 	.word	0x20105200
   241c0:	10000e10 	.word	0x10000e10
   241c4:	100bc800 	.word	0x100bc800
   241c8:	201018e8 	.word	0x201018e8
   241cc:	10000130 	.word	0x10000130

000241d0 <hal_crypto_sha1_init>:
   241d0:	4807      	ldr	r0, [pc, #28]	@ (241f0 <hal_crypto_sha1_init+0x20>)
   241d2:	b510      	push	{r4, lr}
   241d4:	7903      	ldrb	r3, [r0, #4]
   241d6:	2b01      	cmp	r3, #1
   241d8:	d106      	bne.n	241e8 <hal_crypto_sha1_init+0x18>
   241da:	4b06      	ldr	r3, [pc, #24]	@ (241f4 <hal_crypto_sha1_init+0x24>)
   241dc:	691c      	ldr	r4, [r3, #16]
   241de:	2300      	movs	r3, #0
   241e0:	461a      	mov	r2, r3
   241e2:	4619      	mov	r1, r3
   241e4:	47a0      	blx	r4
   241e6:	bd10      	pop	{r4, pc}
   241e8:	f06f 0004 	mvn.w	r0, #4
   241ec:	e7fb      	b.n	241e6 <hal_crypto_sha1_init+0x16>
   241ee:	bf00      	nop
   241f0:	20105200 	.word	0x20105200
   241f4:	10000130 	.word	0x10000130

000241f8 <hal_crypto_sha1_update>:
   241f8:	4602      	mov	r2, r0
   241fa:	480c      	ldr	r0, [pc, #48]	@ (2422c <hal_crypto_sha1_update+0x34>)
   241fc:	b510      	push	{r4, lr}
   241fe:	7903      	ldrb	r3, [r0, #4]
   24200:	2b01      	cmp	r3, #1
   24202:	d10a      	bne.n	2421a <hal_crypto_sha1_update+0x22>
   24204:	b162      	cbz	r2, 24220 <hal_crypto_sha1_update+0x28>
   24206:	1e4b      	subs	r3, r1, #1
   24208:	f5b3 3f80 	cmp.w	r3, #65536	@ 0x10000
   2420c:	d20b      	bcs.n	24226 <hal_crypto_sha1_update+0x2e>
   2420e:	4b08      	ldr	r3, [pc, #32]	@ (24230 <hal_crypto_sha1_update+0x38>)
   24210:	699c      	ldr	r4, [r3, #24]
   24212:	460b      	mov	r3, r1
   24214:	2100      	movs	r1, #0
   24216:	47a0      	blx	r4
   24218:	bd10      	pop	{r4, pc}
   2421a:	f06f 0004 	mvn.w	r0, #4
   2421e:	e7fb      	b.n	24218 <hal_crypto_sha1_update+0x20>
   24220:	f06f 0003 	mvn.w	r0, #3
   24224:	e7f8      	b.n	24218 <hal_crypto_sha1_update+0x20>
   24226:	f06f 0007 	mvn.w	r0, #7
   2422a:	e7f5      	b.n	24218 <hal_crypto_sha1_update+0x20>
   2422c:	20105200 	.word	0x20105200
   24230:	10000130 	.word	0x10000130

00024234 <hal_crypto_sha1_final>:
   24234:	4602      	mov	r2, r0
   24236:	4808      	ldr	r0, [pc, #32]	@ (24258 <hal_crypto_sha1_final+0x24>)
   24238:	b508      	push	{r3, lr}
   2423a:	7903      	ldrb	r3, [r0, #4]
   2423c:	2b01      	cmp	r3, #1
   2423e:	d105      	bne.n	2424c <hal_crypto_sha1_final+0x18>
   24240:	b13a      	cbz	r2, 24252 <hal_crypto_sha1_final+0x1e>
   24242:	4b06      	ldr	r3, [pc, #24]	@ (2425c <hal_crypto_sha1_final+0x28>)
   24244:	2100      	movs	r1, #0
   24246:	69db      	ldr	r3, [r3, #28]
   24248:	4798      	blx	r3
   2424a:	bd08      	pop	{r3, pc}
   2424c:	f06f 0004 	mvn.w	r0, #4
   24250:	e7fb      	b.n	2424a <hal_crypto_sha1_final+0x16>
   24252:	f06f 0003 	mvn.w	r0, #3
   24256:	e7f8      	b.n	2424a <hal_crypto_sha1_final+0x16>
   24258:	20105200 	.word	0x20105200
   2425c:	10000130 	.word	0x10000130

00024260 <hal_crypto_sha2_256_init>:
   24260:	4807      	ldr	r0, [pc, #28]	@ (24280 <hal_crypto_sha2_256_init+0x20>)
   24262:	b510      	push	{r4, lr}
   24264:	7903      	ldrb	r3, [r0, #4]
   24266:	2b01      	cmp	r3, #1
   24268:	d106      	bne.n	24278 <hal_crypto_sha2_256_init+0x18>
   2426a:	4b06      	ldr	r3, [pc, #24]	@ (24284 <hal_crypto_sha2_256_init+0x24>)
   2426c:	2121      	movs	r1, #33	@ 0x21
   2426e:	691c      	ldr	r4, [r3, #16]
   24270:	2300      	movs	r3, #0
   24272:	461a      	mov	r2, r3
   24274:	47a0      	blx	r4
   24276:	bd10      	pop	{r4, pc}
   24278:	f06f 0004 	mvn.w	r0, #4
   2427c:	e7fb      	b.n	24276 <hal_crypto_sha2_256_init+0x16>
   2427e:	bf00      	nop
   24280:	20105200 	.word	0x20105200
   24284:	10000130 	.word	0x10000130

00024288 <hal_crypto_sha2_256_update>:
   24288:	4602      	mov	r2, r0
   2428a:	480c      	ldr	r0, [pc, #48]	@ (242bc <hal_crypto_sha2_256_update+0x34>)
   2428c:	b510      	push	{r4, lr}
   2428e:	7903      	ldrb	r3, [r0, #4]
   24290:	2b01      	cmp	r3, #1
   24292:	d10a      	bne.n	242aa <hal_crypto_sha2_256_update+0x22>
   24294:	b162      	cbz	r2, 242b0 <hal_crypto_sha2_256_update+0x28>
   24296:	1e4b      	subs	r3, r1, #1
   24298:	f5b3 3f80 	cmp.w	r3, #65536	@ 0x10000
   2429c:	d20b      	bcs.n	242b6 <hal_crypto_sha2_256_update+0x2e>
   2429e:	4b08      	ldr	r3, [pc, #32]	@ (242c0 <hal_crypto_sha2_256_update+0x38>)
   242a0:	699c      	ldr	r4, [r3, #24]
   242a2:	460b      	mov	r3, r1
   242a4:	2121      	movs	r1, #33	@ 0x21
   242a6:	47a0      	blx	r4
   242a8:	bd10      	pop	{r4, pc}
   242aa:	f06f 0004 	mvn.w	r0, #4
   242ae:	e7fb      	b.n	242a8 <hal_crypto_sha2_256_update+0x20>
   242b0:	f06f 0003 	mvn.w	r0, #3
   242b4:	e7f8      	b.n	242a8 <hal_crypto_sha2_256_update+0x20>
   242b6:	f06f 0007 	mvn.w	r0, #7
   242ba:	e7f5      	b.n	242a8 <hal_crypto_sha2_256_update+0x20>
   242bc:	20105200 	.word	0x20105200
   242c0:	10000130 	.word	0x10000130

000242c4 <hal_crypto_sha2_256_final>:
   242c4:	4602      	mov	r2, r0
   242c6:	4808      	ldr	r0, [pc, #32]	@ (242e8 <hal_crypto_sha2_256_final+0x24>)
   242c8:	b508      	push	{r3, lr}
   242ca:	7903      	ldrb	r3, [r0, #4]
   242cc:	2b01      	cmp	r3, #1
   242ce:	d105      	bne.n	242dc <hal_crypto_sha2_256_final+0x18>
   242d0:	b13a      	cbz	r2, 242e2 <hal_crypto_sha2_256_final+0x1e>
   242d2:	4b06      	ldr	r3, [pc, #24]	@ (242ec <hal_crypto_sha2_256_final+0x28>)
   242d4:	2121      	movs	r1, #33	@ 0x21
   242d6:	69db      	ldr	r3, [r3, #28]
   242d8:	4798      	blx	r3
   242da:	bd08      	pop	{r3, pc}
   242dc:	f06f 0004 	mvn.w	r0, #4
   242e0:	e7fb      	b.n	242da <hal_crypto_sha2_256_final+0x16>
   242e2:	f06f 0003 	mvn.w	r0, #3
   242e6:	e7f8      	b.n	242da <hal_crypto_sha2_256_final+0x16>
   242e8:	20105200 	.word	0x20105200
   242ec:	10000130 	.word	0x10000130

000242f0 <hal_crypto_sha2_512_init>:
   242f0:	4807      	ldr	r0, [pc, #28]	@ (24310 <hal_crypto_sha2_512_init+0x20>)
   242f2:	b510      	push	{r4, lr}
   242f4:	7903      	ldrb	r3, [r0, #4]
   242f6:	2b01      	cmp	r3, #1
   242f8:	d106      	bne.n	24308 <hal_crypto_sha2_512_init+0x18>
   242fa:	4b06      	ldr	r3, [pc, #24]	@ (24314 <hal_crypto_sha2_512_init+0x24>)
   242fc:	2141      	movs	r1, #65	@ 0x41
   242fe:	691c      	ldr	r4, [r3, #16]
   24300:	2300      	movs	r3, #0
   24302:	461a      	mov	r2, r3
   24304:	47a0      	blx	r4
   24306:	bd10      	pop	{r4, pc}
   24308:	f06f 0004 	mvn.w	r0, #4
   2430c:	e7fb      	b.n	24306 <hal_crypto_sha2_512_init+0x16>
   2430e:	bf00      	nop
   24310:	20105200 	.word	0x20105200
   24314:	10000130 	.word	0x10000130

00024318 <hal_crypto_sha2_512_update>:
   24318:	4602      	mov	r2, r0
   2431a:	480c      	ldr	r0, [pc, #48]	@ (2434c <hal_crypto_sha2_512_update+0x34>)
   2431c:	b510      	push	{r4, lr}
   2431e:	7903      	ldrb	r3, [r0, #4]
   24320:	2b01      	cmp	r3, #1
   24322:	d10a      	bne.n	2433a <hal_crypto_sha2_512_update+0x22>
   24324:	b162      	cbz	r2, 24340 <hal_crypto_sha2_512_update+0x28>
   24326:	1e4b      	subs	r3, r1, #1
   24328:	f5b3 3f80 	cmp.w	r3, #65536	@ 0x10000
   2432c:	d20b      	bcs.n	24346 <hal_crypto_sha2_512_update+0x2e>
   2432e:	4b08      	ldr	r3, [pc, #32]	@ (24350 <hal_crypto_sha2_512_update+0x38>)
   24330:	699c      	ldr	r4, [r3, #24]
   24332:	460b      	mov	r3, r1
   24334:	2141      	movs	r1, #65	@ 0x41
   24336:	47a0      	blx	r4
   24338:	bd10      	pop	{r4, pc}
   2433a:	f06f 0004 	mvn.w	r0, #4
   2433e:	e7fb      	b.n	24338 <hal_crypto_sha2_512_update+0x20>
   24340:	f06f 0003 	mvn.w	r0, #3
   24344:	e7f8      	b.n	24338 <hal_crypto_sha2_512_update+0x20>
   24346:	f06f 0007 	mvn.w	r0, #7
   2434a:	e7f5      	b.n	24338 <hal_crypto_sha2_512_update+0x20>
   2434c:	20105200 	.word	0x20105200
   24350:	10000130 	.word	0x10000130

00024354 <hal_crypto_sha2_512_final>:
   24354:	4602      	mov	r2, r0
   24356:	4808      	ldr	r0, [pc, #32]	@ (24378 <hal_crypto_sha2_512_final+0x24>)
   24358:	b508      	push	{r3, lr}
   2435a:	7903      	ldrb	r3, [r0, #4]
   2435c:	2b01      	cmp	r3, #1
   2435e:	d105      	bne.n	2436c <hal_crypto_sha2_512_final+0x18>
   24360:	b13a      	cbz	r2, 24372 <hal_crypto_sha2_512_final+0x1e>
   24362:	4b06      	ldr	r3, [pc, #24]	@ (2437c <hal_crypto_sha2_512_final+0x28>)
   24364:	2141      	movs	r1, #65	@ 0x41
   24366:	69db      	ldr	r3, [r3, #28]
   24368:	4798      	blx	r3
   2436a:	bd08      	pop	{r3, pc}
   2436c:	f06f 0004 	mvn.w	r0, #4
   24370:	e7fb      	b.n	2436a <hal_crypto_sha2_512_final+0x16>
   24372:	f06f 0003 	mvn.w	r0, #3
   24376:	e7f8      	b.n	2436a <hal_crypto_sha2_512_final+0x16>
   24378:	20105200 	.word	0x20105200
   2437c:	10000130 	.word	0x10000130

00024380 <hal_crypto_hmac_sha2_256_init>:
   24380:	4602      	mov	r2, r0
   24382:	480e      	ldr	r0, [pc, #56]	@ (243bc <hal_crypto_hmac_sha2_256_init+0x3c>)
   24384:	b510      	push	{r4, lr}
   24386:	7903      	ldrb	r3, [r0, #4]
   24388:	2b01      	cmp	r3, #1
   2438a:	d10b      	bne.n	243a4 <hal_crypto_hmac_sha2_256_init+0x24>
   2438c:	b16a      	cbz	r2, 243aa <hal_crypto_hmac_sha2_256_init+0x2a>
   2438e:	06d3      	lsls	r3, r2, #27
   24390:	d10e      	bne.n	243b0 <hal_crypto_hmac_sha2_256_init+0x30>
   24392:	1e4b      	subs	r3, r1, #1
   24394:	2b3f      	cmp	r3, #63	@ 0x3f
   24396:	d80e      	bhi.n	243b6 <hal_crypto_hmac_sha2_256_init+0x36>
   24398:	4b09      	ldr	r3, [pc, #36]	@ (243c0 <hal_crypto_hmac_sha2_256_init+0x40>)
   2439a:	691c      	ldr	r4, [r3, #16]
   2439c:	460b      	mov	r3, r1
   2439e:	2125      	movs	r1, #37	@ 0x25
   243a0:	47a0      	blx	r4
   243a2:	bd10      	pop	{r4, pc}
   243a4:	f06f 0004 	mvn.w	r0, #4
   243a8:	e7fb      	b.n	243a2 <hal_crypto_hmac_sha2_256_init+0x22>
   243aa:	f06f 0003 	mvn.w	r0, #3
   243ae:	e7f8      	b.n	243a2 <hal_crypto_hmac_sha2_256_init+0x22>
   243b0:	f06f 0005 	mvn.w	r0, #5
   243b4:	e7f5      	b.n	243a2 <hal_crypto_hmac_sha2_256_init+0x22>
   243b6:	f06f 0006 	mvn.w	r0, #6
   243ba:	e7f2      	b.n	243a2 <hal_crypto_hmac_sha2_256_init+0x22>
   243bc:	20105200 	.word	0x20105200
   243c0:	10000130 	.word	0x10000130

000243c4 <hal_crypto_hmac_sha2_256_update>:
   243c4:	4602      	mov	r2, r0
   243c6:	480c      	ldr	r0, [pc, #48]	@ (243f8 <hal_crypto_hmac_sha2_256_update+0x34>)
   243c8:	b510      	push	{r4, lr}
   243ca:	7903      	ldrb	r3, [r0, #4]
   243cc:	2b01      	cmp	r3, #1
   243ce:	d10a      	bne.n	243e6 <hal_crypto_hmac_sha2_256_update+0x22>
   243d0:	b162      	cbz	r2, 243ec <hal_crypto_hmac_sha2_256_update+0x28>
   243d2:	1e4b      	subs	r3, r1, #1
   243d4:	f5b3 3f80 	cmp.w	r3, #65536	@ 0x10000
   243d8:	d20b      	bcs.n	243f2 <hal_crypto_hmac_sha2_256_update+0x2e>
   243da:	4b08      	ldr	r3, [pc, #32]	@ (243fc <hal_crypto_hmac_sha2_256_update+0x38>)
   243dc:	699c      	ldr	r4, [r3, #24]
   243de:	460b      	mov	r3, r1
   243e0:	2125      	movs	r1, #37	@ 0x25
   243e2:	47a0      	blx	r4
   243e4:	bd10      	pop	{r4, pc}
   243e6:	f06f 0004 	mvn.w	r0, #4
   243ea:	e7fb      	b.n	243e4 <hal_crypto_hmac_sha2_256_update+0x20>
   243ec:	f06f 0003 	mvn.w	r0, #3
   243f0:	e7f8      	b.n	243e4 <hal_crypto_hmac_sha2_256_update+0x20>
   243f2:	f06f 0007 	mvn.w	r0, #7
   243f6:	e7f5      	b.n	243e4 <hal_crypto_hmac_sha2_256_update+0x20>
   243f8:	20105200 	.word	0x20105200
   243fc:	10000130 	.word	0x10000130

00024400 <hal_crypto_hmac_sha2_256_final>:
   24400:	4602      	mov	r2, r0
   24402:	4808      	ldr	r0, [pc, #32]	@ (24424 <hal_crypto_hmac_sha2_256_final+0x24>)
   24404:	b508      	push	{r3, lr}
   24406:	7903      	ldrb	r3, [r0, #4]
   24408:	2b01      	cmp	r3, #1
   2440a:	d105      	bne.n	24418 <hal_crypto_hmac_sha2_256_final+0x18>
   2440c:	b13a      	cbz	r2, 2441e <hal_crypto_hmac_sha2_256_final+0x1e>
   2440e:	4b06      	ldr	r3, [pc, #24]	@ (24428 <hal_crypto_hmac_sha2_256_final+0x28>)
   24410:	2125      	movs	r1, #37	@ 0x25
   24412:	69db      	ldr	r3, [r3, #28]
   24414:	4798      	blx	r3
   24416:	bd08      	pop	{r3, pc}
   24418:	f06f 0004 	mvn.w	r0, #4
   2441c:	e7fb      	b.n	24416 <hal_crypto_hmac_sha2_256_final+0x16>
   2441e:	f06f 0003 	mvn.w	r0, #3
   24422:	e7f8      	b.n	24416 <hal_crypto_hmac_sha2_256_final+0x16>
   24424:	20105200 	.word	0x20105200
   24428:	10000130 	.word	0x10000130

0002442c <hal_crypto_hmac_sha2_256_get_sk_cfg>:
   2442c:	b573      	push	{r0, r1, r4, r5, r6, lr}
   2442e:	461c      	mov	r4, r3
   24430:	2300      	movs	r3, #0
   24432:	4615      	mov	r5, r2
   24434:	9301      	str	r3, [sp, #4]
   24436:	4b0f      	ldr	r3, [pc, #60]	@ (24474 <hal_crypto_hmac_sha2_256_get_sk_cfg+0x48>)
   24438:	791a      	ldrb	r2, [r3, #4]
   2443a:	2a01      	cmp	r2, #1
   2443c:	d116      	bne.n	2446c <hal_crypto_hmac_sha2_256_get_sk_cfg+0x40>
   2443e:	f001 010f 	and.w	r1, r1, #15
   24442:	4e0d      	ldr	r6, [pc, #52]	@ (24478 <hal_crypto_hmac_sha2_256_get_sk_cfg+0x4c>)
   24444:	f004 040f 	and.w	r4, r4, #15
   24448:	ea41 1100 	orr.w	r1, r1, r0, lsl #4
   2444c:	f8d6 30a4 	ldr.w	r3, [r6, #164]	@ 0xa4
   24450:	a801      	add	r0, sp, #4
   24452:	b2c9      	uxtb	r1, r1
   24454:	4798      	blx	r3
   24456:	a801      	add	r0, sp, #4
   24458:	ea44 1105 	orr.w	r1, r4, r5, lsl #4
   2445c:	f8d6 30a4 	ldr.w	r3, [r6, #164]	@ 0xa4
   24460:	2202      	movs	r2, #2
   24462:	b2c9      	uxtb	r1, r1
   24464:	4798      	blx	r3
   24466:	9801      	ldr	r0, [sp, #4]
   24468:	b002      	add	sp, #8
   2446a:	bd70      	pop	{r4, r5, r6, pc}
   2446c:	f06f 0004 	mvn.w	r0, #4
   24470:	e7fa      	b.n	24468 <hal_crypto_hmac_sha2_256_get_sk_cfg+0x3c>
   24472:	bf00      	nop
   24474:	20105200 	.word	0x20105200
   24478:	10000130 	.word	0x10000130

0002447c <hal_crypto_hmac_sha2_256_sk_init>:
   2447c:	4602      	mov	r2, r0
   2447e:	480a      	ldr	r0, [pc, #40]	@ (244a8 <hal_crypto_hmac_sha2_256_sk_init+0x2c>)
   24480:	b538      	push	{r3, r4, r5, lr}
   24482:	7904      	ldrb	r4, [r0, #4]
   24484:	460b      	mov	r3, r1
   24486:	2c01      	cmp	r4, #1
   24488:	d10a      	bne.n	244a0 <hal_crypto_hmac_sha2_256_sk_init+0x24>
   2448a:	4908      	ldr	r1, [pc, #32]	@ (244ac <hal_crypto_hmac_sha2_256_sk_init+0x30>)
   2448c:	f8d1 509c 	ldr.w	r5, [r1, #156]	@ 0x9c
   24490:	2125      	movs	r1, #37	@ 0x25
   24492:	47a8      	blx	r5
   24494:	b918      	cbnz	r0, 2449e <hal_crypto_hmac_sha2_256_sk_init+0x22>
   24496:	4b06      	ldr	r3, [pc, #24]	@ (244b0 <hal_crypto_hmac_sha2_256_sk_init+0x34>)
   24498:	781a      	ldrb	r2, [r3, #0]
   2449a:	b902      	cbnz	r2, 2449e <hal_crypto_hmac_sha2_256_sk_init+0x22>
   2449c:	701c      	strb	r4, [r3, #0]
   2449e:	bd38      	pop	{r3, r4, r5, pc}
   244a0:	f06f 0004 	mvn.w	r0, #4
   244a4:	e7fb      	b.n	2449e <hal_crypto_hmac_sha2_256_sk_init+0x22>
   244a6:	bf00      	nop
   244a8:	20105200 	.word	0x20105200
   244ac:	10000130 	.word	0x10000130
   244b0:	00018d30 	.word	0x00018d30

000244b4 <hal_crypto_hmac_sha2_256_sk_final>:
   244b4:	4602      	mov	r2, r0
   244b6:	4807      	ldr	r0, [pc, #28]	@ (244d4 <hal_crypto_hmac_sha2_256_sk_final+0x20>)
   244b8:	b508      	push	{r3, lr}
   244ba:	7903      	ldrb	r3, [r0, #4]
   244bc:	2b01      	cmp	r3, #1
   244be:	d105      	bne.n	244cc <hal_crypto_hmac_sha2_256_sk_final+0x18>
   244c0:	4b05      	ldr	r3, [pc, #20]	@ (244d8 <hal_crypto_hmac_sha2_256_sk_final+0x24>)
   244c2:	2125      	movs	r1, #37	@ 0x25
   244c4:	f8d3 30a0 	ldr.w	r3, [r3, #160]	@ 0xa0
   244c8:	4798      	blx	r3
   244ca:	bd08      	pop	{r3, pc}
   244cc:	f06f 0004 	mvn.w	r0, #4
   244d0:	e7fb      	b.n	244ca <hal_crypto_hmac_sha2_256_sk_final+0x16>
   244d2:	bf00      	nop
   244d4:	20105200 	.word	0x20105200
   244d8:	10000130 	.word	0x10000130

000244dc <hal_crypto_aes_sk_init_core>:
   244dc:	2300      	movs	r3, #0
   244de:	b5f7      	push	{r0, r1, r2, r4, r5, r6, r7, lr}
   244e0:	9301      	str	r3, [sp, #4]
   244e2:	4605      	mov	r5, r0
   244e4:	4b1d      	ldr	r3, [pc, #116]	@ (2455c <hal_crypto_aes_sk_init_core+0x80>)
   244e6:	4614      	mov	r4, r2
   244e8:	791b      	ldrb	r3, [r3, #4]
   244ea:	2b01      	cmp	r3, #1
   244ec:	d130      	bne.n	24550 <hal_crypto_aes_sk_init_core+0x74>
   244ee:	f022 0308 	bic.w	r3, r2, #8
   244f2:	2b10      	cmp	r3, #16
   244f4:	d001      	beq.n	244fa <hal_crypto_aes_sk_init_core+0x1e>
   244f6:	2a20      	cmp	r2, #32
   244f8:	d12d      	bne.n	24556 <hal_crypto_aes_sk_init_core+0x7a>
   244fa:	4e19      	ldr	r6, [pc, #100]	@ (24560 <hal_crypto_aes_sk_init_core+0x84>)
   244fc:	f001 010f 	and.w	r1, r1, #15
   24500:	2201      	movs	r2, #1
   24502:	a801      	add	r0, sp, #4
   24504:	f041 0110 	orr.w	r1, r1, #16
   24508:	f8d6 70a4 	ldr.w	r7, [r6, #164]	@ 0xa4
   2450c:	47b8      	blx	r7
   2450e:	2202      	movs	r2, #2
   24510:	f8d6 30a4 	ldr.w	r3, [r6, #164]	@ 0xa4
   24514:	210f      	movs	r1, #15
   24516:	a801      	add	r0, sp, #4
   24518:	4798      	blx	r3
   2451a:	9a01      	ldr	r2, [sp, #4]
   2451c:	b952      	cbnz	r2, 24534 <hal_crypto_aes_sk_init_core+0x58>
   2451e:	4b11      	ldr	r3, [pc, #68]	@ (24564 <hal_crypto_aes_sk_init_core+0x88>)
   24520:	781b      	ldrb	r3, [r3, #0]
   24522:	b123      	cbz	r3, 2452e <hal_crypto_aes_sk_init_core+0x52>
   24524:	4b10      	ldr	r3, [pc, #64]	@ (24568 <hal_crypto_aes_sk_init_core+0x8c>)
   24526:	4611      	mov	r1, r2
   24528:	4810      	ldr	r0, [pc, #64]	@ (2456c <hal_crypto_aes_sk_init_core+0x90>)
   2452a:	69db      	ldr	r3, [r3, #28]
   2452c:	4798      	blx	r3
   2452e:	f04f 30ff 	mov.w	r0, #4294967295	@ 0xffffffff
   24532:	e00b      	b.n	2454c <hal_crypto_aes_sk_init_core+0x70>
   24534:	f8d6 60ac 	ldr.w	r6, [r6, #172]	@ 0xac
   24538:	4623      	mov	r3, r4
   2453a:	4629      	mov	r1, r5
   2453c:	4807      	ldr	r0, [pc, #28]	@ (2455c <hal_crypto_aes_sk_init_core+0x80>)
   2453e:	47b0      	blx	r6
   24540:	b920      	cbnz	r0, 2454c <hal_crypto_aes_sk_init_core+0x70>
   24542:	4b0b      	ldr	r3, [pc, #44]	@ (24570 <hal_crypto_aes_sk_init_core+0x94>)
   24544:	781a      	ldrb	r2, [r3, #0]
   24546:	b90a      	cbnz	r2, 2454c <hal_crypto_aes_sk_init_core+0x70>
   24548:	2201      	movs	r2, #1
   2454a:	701a      	strb	r2, [r3, #0]
   2454c:	b003      	add	sp, #12
   2454e:	bdf0      	pop	{r4, r5, r6, r7, pc}
   24550:	f06f 0004 	mvn.w	r0, #4
   24554:	e7fa      	b.n	2454c <hal_crypto_aes_sk_init_core+0x70>
   24556:	f06f 0006 	mvn.w	r0, #6
   2455a:	e7f7      	b.n	2454c <hal_crypto_aes_sk_init_core+0x70>
   2455c:	20105200 	.word	0x20105200
   24560:	10000130 	.word	0x10000130
   24564:	0001a2a0 	.word	0x0001a2a0
   24568:	100bc800 	.word	0x100bc800
   2456c:	20101917 	.word	0x20101917
   24570:	00018d30 	.word	0x00018d30

00024574 <hal_crypto_aes_ecb_sk_init>:
   24574:	460a      	mov	r2, r1
   24576:	4601      	mov	r1, r0
   24578:	2020      	movs	r0, #32
   2457a:	b508      	push	{r3, lr}
   2457c:	f7ff ffae 	bl	244dc <hal_crypto_aes_sk_init_core>
   24580:	bd08      	pop	{r3, pc}
	...

00024584 <hal_crypto_aes_ecb_encrypt>:
   24584:	4602      	mov	r2, r0
   24586:	4817      	ldr	r0, [pc, #92]	@ (245e4 <hal_crypto_aes_ecb_encrypt+0x60>)
   24588:	b530      	push	{r4, r5, lr}
   2458a:	7905      	ldrb	r5, [r0, #4]
   2458c:	b087      	sub	sp, #28
   2458e:	2d01      	cmp	r5, #1
   24590:	9c0a      	ldr	r4, [sp, #40]	@ 0x28
   24592:	d116      	bne.n	245c2 <hal_crypto_aes_ecb_encrypt+0x3e>
   24594:	b9c3      	cbnz	r3, 245c8 <hal_crypto_aes_ecb_encrypt+0x44>
   24596:	b1d4      	cbz	r4, 245ce <hal_crypto_aes_ecb_encrypt+0x4a>
   24598:	b1ca      	cbz	r2, 245ce <hal_crypto_aes_ecb_encrypt+0x4a>
   2459a:	b1d9      	cbz	r1, 245d4 <hal_crypto_aes_ecb_encrypt+0x50>
   2459c:	f5b1 3f80 	cmp.w	r1, #65536	@ 0x10000
   245a0:	d81a      	bhi.n	245d8 <hal_crypto_aes_ecb_encrypt+0x54>
   245a2:	f011 030f 	ands.w	r3, r1, #15
   245a6:	d11a      	bne.n	245de <hal_crypto_aes_ecb_encrypt+0x5a>
   245a8:	e9cd 4304 	strd	r4, r3, [sp, #16]
   245ac:	e9cd 3302 	strd	r3, r3, [sp, #8]
   245b0:	e9cd 3300 	strd	r3, r3, [sp]
   245b4:	4b0c      	ldr	r3, [pc, #48]	@ (245e8 <hal_crypto_aes_ecb_encrypt+0x64>)
   245b6:	6a5c      	ldr	r4, [r3, #36]	@ 0x24
   245b8:	460b      	mov	r3, r1
   245ba:	2120      	movs	r1, #32
   245bc:	47a0      	blx	r4
   245be:	b007      	add	sp, #28
   245c0:	bd30      	pop	{r4, r5, pc}
   245c2:	f06f 0004 	mvn.w	r0, #4
   245c6:	e7fa      	b.n	245be <hal_crypto_aes_ecb_encrypt+0x3a>
   245c8:	f06f 0008 	mvn.w	r0, #8
   245cc:	e7f7      	b.n	245be <hal_crypto_aes_ecb_encrypt+0x3a>
   245ce:	f06f 0003 	mvn.w	r0, #3
   245d2:	e7f4      	b.n	245be <hal_crypto_aes_ecb_encrypt+0x3a>
   245d4:	4608      	mov	r0, r1
   245d6:	e7f2      	b.n	245be <hal_crypto_aes_ecb_encrypt+0x3a>
   245d8:	f06f 0007 	mvn.w	r0, #7
   245dc:	e7ef      	b.n	245be <hal_crypto_aes_ecb_encrypt+0x3a>
   245de:	f06f 000d 	mvn.w	r0, #13
   245e2:	e7ec      	b.n	245be <hal_crypto_aes_ecb_encrypt+0x3a>
   245e4:	20105200 	.word	0x20105200
   245e8:	10000130 	.word	0x10000130

000245ec <hal_crypto_aes_ecb_decrypt>:
   245ec:	4602      	mov	r2, r0
   245ee:	4817      	ldr	r0, [pc, #92]	@ (2464c <hal_crypto_aes_ecb_decrypt+0x60>)
   245f0:	b530      	push	{r4, r5, lr}
   245f2:	7905      	ldrb	r5, [r0, #4]
   245f4:	b087      	sub	sp, #28
   245f6:	2d01      	cmp	r5, #1
   245f8:	9c0a      	ldr	r4, [sp, #40]	@ 0x28
   245fa:	d116      	bne.n	2462a <hal_crypto_aes_ecb_decrypt+0x3e>
   245fc:	b9c3      	cbnz	r3, 24630 <hal_crypto_aes_ecb_decrypt+0x44>
   245fe:	b1d4      	cbz	r4, 24636 <hal_crypto_aes_ecb_decrypt+0x4a>
   24600:	b1ca      	cbz	r2, 24636 <hal_crypto_aes_ecb_decrypt+0x4a>
   24602:	b1d9      	cbz	r1, 2463c <hal_crypto_aes_ecb_decrypt+0x50>
   24604:	f5b1 3f80 	cmp.w	r1, #65536	@ 0x10000
   24608:	d81a      	bhi.n	24640 <hal_crypto_aes_ecb_decrypt+0x54>
   2460a:	f011 030f 	ands.w	r3, r1, #15
   2460e:	d11a      	bne.n	24646 <hal_crypto_aes_ecb_decrypt+0x5a>
   24610:	e9cd 4304 	strd	r4, r3, [sp, #16]
   24614:	e9cd 3302 	strd	r3, r3, [sp, #8]
   24618:	e9cd 3300 	strd	r3, r3, [sp]
   2461c:	4b0c      	ldr	r3, [pc, #48]	@ (24650 <hal_crypto_aes_ecb_decrypt+0x64>)
   2461e:	6a9c      	ldr	r4, [r3, #40]	@ 0x28
   24620:	460b      	mov	r3, r1
   24622:	2120      	movs	r1, #32
   24624:	47a0      	blx	r4
   24626:	b007      	add	sp, #28
   24628:	bd30      	pop	{r4, r5, pc}
   2462a:	f06f 0004 	mvn.w	r0, #4
   2462e:	e7fa      	b.n	24626 <hal_crypto_aes_ecb_decrypt+0x3a>
   24630:	f06f 0008 	mvn.w	r0, #8
   24634:	e7f7      	b.n	24626 <hal_crypto_aes_ecb_decrypt+0x3a>
   24636:	f06f 0003 	mvn.w	r0, #3
   2463a:	e7f4      	b.n	24626 <hal_crypto_aes_ecb_decrypt+0x3a>
   2463c:	4608      	mov	r0, r1
   2463e:	e7f2      	b.n	24626 <hal_crypto_aes_ecb_decrypt+0x3a>
   24640:	f06f 0007 	mvn.w	r0, #7
   24644:	e7ef      	b.n	24626 <hal_crypto_aes_ecb_decrypt+0x3a>
   24646:	f06f 000d 	mvn.w	r0, #13
   2464a:	e7ec      	b.n	24626 <hal_crypto_aes_ecb_decrypt+0x3a>
   2464c:	20105200 	.word	0x20105200
   24650:	10000130 	.word	0x10000130

00024654 <hal_crypto_aes_gcm_sk_init>:
   24654:	460a      	mov	r2, r1
   24656:	4601      	mov	r1, r0
   24658:	2028      	movs	r0, #40	@ 0x28
   2465a:	b508      	push	{r3, lr}
   2465c:	f7ff ff3e 	bl	244dc <hal_crypto_aes_sk_init_core>
   24660:	bd08      	pop	{r3, pc}
	...

00024664 <hal_crypto_aes_gcm_decrypt>:
   24664:	b5f0      	push	{r4, r5, r6, r7, lr}
   24666:	4f1f      	ldr	r7, [pc, #124]	@ (246e4 <hal_crypto_aes_gcm_decrypt+0x80>)
   24668:	b087      	sub	sp, #28
   2466a:	4604      	mov	r4, r0
   2466c:	793f      	ldrb	r7, [r7, #4]
   2466e:	9e0e      	ldr	r6, [sp, #56]	@ 0x38
   24670:	2f01      	cmp	r7, #1
   24672:	e9dd 050c 	ldrd	r0, r5, [sp, #48]	@ 0x30
   24676:	d120      	bne.n	246ba <hal_crypto_aes_gcm_decrypt+0x56>
   24678:	b342      	cbz	r2, 246cc <hal_crypto_aes_gcm_decrypt+0x68>
   2467a:	ea42 0703 	orr.w	r7, r2, r3
   2467e:	06ff      	lsls	r7, r7, #27
   24680:	d11e      	bne.n	246c0 <hal_crypto_aes_gcm_decrypt+0x5c>
   24682:	f5b0 7ff8 	cmp.w	r0, #496	@ 0x1f0
   24686:	d81e      	bhi.n	246c6 <hal_crypto_aes_gcm_decrypt+0x62>
   24688:	b306      	cbz	r6, 246cc <hal_crypto_aes_gcm_decrypt+0x68>
   2468a:	b1fd      	cbz	r5, 246cc <hal_crypto_aes_gcm_decrypt+0x68>
   2468c:	b1f4      	cbz	r4, 246cc <hal_crypto_aes_gcm_decrypt+0x68>
   2468e:	b301      	cbz	r1, 246d2 <hal_crypto_aes_gcm_decrypt+0x6e>
   24690:	f5b1 3f80 	cmp.w	r1, #65536	@ 0x10000
   24694:	d81f      	bhi.n	246d6 <hal_crypto_aes_gcm_decrypt+0x72>
   24696:	070f      	lsls	r7, r1, #28
   24698:	d120      	bne.n	246dc <hal_crypto_aes_gcm_decrypt+0x78>
   2469a:	e9cd 3002 	strd	r3, r0, [sp, #8]
   2469e:	2300      	movs	r3, #0
   246a0:	4810      	ldr	r0, [pc, #64]	@ (246e4 <hal_crypto_aes_gcm_decrypt+0x80>)
   246a2:	e9cd 2300 	strd	r2, r3, [sp]
   246a6:	4b10      	ldr	r3, [pc, #64]	@ (246e8 <hal_crypto_aes_gcm_decrypt+0x84>)
   246a8:	4622      	mov	r2, r4
   246aa:	e9cd 5604 	strd	r5, r6, [sp, #16]
   246ae:	6a9d      	ldr	r5, [r3, #40]	@ 0x28
   246b0:	460b      	mov	r3, r1
   246b2:	2128      	movs	r1, #40	@ 0x28
   246b4:	47a8      	blx	r5
   246b6:	b007      	add	sp, #28
   246b8:	bdf0      	pop	{r4, r5, r6, r7, pc}
   246ba:	f06f 0004 	mvn.w	r0, #4
   246be:	e7fa      	b.n	246b6 <hal_crypto_aes_gcm_decrypt+0x52>
   246c0:	f06f 0005 	mvn.w	r0, #5
   246c4:	e7f7      	b.n	246b6 <hal_crypto_aes_gcm_decrypt+0x52>
   246c6:	f06f 0009 	mvn.w	r0, #9
   246ca:	e7f4      	b.n	246b6 <hal_crypto_aes_gcm_decrypt+0x52>
   246cc:	f06f 0003 	mvn.w	r0, #3
   246d0:	e7f1      	b.n	246b6 <hal_crypto_aes_gcm_decrypt+0x52>
   246d2:	4608      	mov	r0, r1
   246d4:	e7ef      	b.n	246b6 <hal_crypto_aes_gcm_decrypt+0x52>
   246d6:	f06f 0007 	mvn.w	r0, #7
   246da:	e7ec      	b.n	246b6 <hal_crypto_aes_gcm_decrypt+0x52>
   246dc:	f06f 000d 	mvn.w	r0, #13
   246e0:	e7e9      	b.n	246b6 <hal_crypto_aes_gcm_decrypt+0x52>
   246e2:	bf00      	nop
   246e4:	20105200 	.word	0x20105200
   246e8:	10000130 	.word	0x10000130

000246ec <hal_crypto_key_storage_writekey>:
   246ec:	b570      	push	{r4, r5, r6, lr}
   246ee:	4d0c      	ldr	r5, [pc, #48]	@ (24720 <hal_crypto_key_storage_writekey+0x34>)
   246f0:	4613      	mov	r3, r2
   246f2:	792c      	ldrb	r4, [r5, #4]
   246f4:	2c01      	cmp	r4, #1
   246f6:	d10d      	bne.n	24714 <hal_crypto_key_storage_writekey+0x28>
   246f8:	b178      	cbz	r0, 2471a <hal_crypto_key_storage_writekey+0x2e>
   246fa:	4a0a      	ldr	r2, [pc, #40]	@ (24724 <hal_crypto_key_storage_writekey+0x38>)
   246fc:	f8d2 6088 	ldr.w	r6, [r2, #136]	@ 0x88
   24700:	460a      	mov	r2, r1
   24702:	4601      	mov	r1, r0
   24704:	4628      	mov	r0, r5
   24706:	47b0      	blx	r6
   24708:	b918      	cbnz	r0, 24712 <hal_crypto_key_storage_writekey+0x26>
   2470a:	4b07      	ldr	r3, [pc, #28]	@ (24728 <hal_crypto_key_storage_writekey+0x3c>)
   2470c:	781a      	ldrb	r2, [r3, #0]
   2470e:	b902      	cbnz	r2, 24712 <hal_crypto_key_storage_writekey+0x26>
   24710:	701c      	strb	r4, [r3, #0]
   24712:	bd70      	pop	{r4, r5, r6, pc}
   24714:	f06f 0004 	mvn.w	r0, #4
   24718:	e7fb      	b.n	24712 <hal_crypto_key_storage_writekey+0x26>
   2471a:	f06f 0003 	mvn.w	r0, #3
   2471e:	e7f8      	b.n	24712 <hal_crypto_key_storage_writekey+0x26>
   24720:	20105200 	.word	0x20105200
   24724:	10000130 	.word	0x10000130
   24728:	00018d30 	.word	0x00018d30

0002472c <hal_crypto_crc_setting>:
   2472c:	b57f      	push	{r0, r1, r2, r3, r4, r5, r6, lr}
   2472e:	4c0c      	ldr	r4, [pc, #48]	@ (24760 <hal_crypto_crc_setting+0x34>)
   24730:	7925      	ldrb	r5, [r4, #4]
   24732:	2d01      	cmp	r5, #1
   24734:	d110      	bne.n	24758 <hal_crypto_crc_setting+0x2c>
   24736:	4d0b      	ldr	r5, [pc, #44]	@ (24764 <hal_crypto_crc_setting+0x38>)
   24738:	2600      	movs	r6, #0
   2473a:	602e      	str	r6, [r5, #0]
   2473c:	9d09      	ldr	r5, [sp, #36]	@ 0x24
   2473e:	9502      	str	r5, [sp, #8]
   24740:	9d08      	ldr	r5, [sp, #32]
   24742:	e9cd 3500 	strd	r3, r5, [sp]
   24746:	4b08      	ldr	r3, [pc, #32]	@ (24768 <hal_crypto_crc_setting+0x3c>)
   24748:	6d9d      	ldr	r5, [r3, #88]	@ 0x58
   2474a:	4613      	mov	r3, r2
   2474c:	460a      	mov	r2, r1
   2474e:	4601      	mov	r1, r0
   24750:	4620      	mov	r0, r4
   24752:	47a8      	blx	r5
   24754:	b004      	add	sp, #16
   24756:	bd70      	pop	{r4, r5, r6, pc}
   24758:	f06f 0004 	mvn.w	r0, #4
   2475c:	e7fa      	b.n	24754 <hal_crypto_crc_setting+0x28>
   2475e:	bf00      	nop
   24760:	20105200 	.word	0x20105200
   24764:	00018d24 	.word	0x00018d24
   24768:	10000130 	.word	0x10000130

0002476c <hal_crypto_crc_cmd>:
   2476c:	b5f8      	push	{r3, r4, r5, r6, r7, lr}
   2476e:	4e12      	ldr	r6, [pc, #72]	@ (247b8 <hal_crypto_crc_cmd+0x4c>)
   24770:	4615      	mov	r5, r2
   24772:	7933      	ldrb	r3, [r6, #4]
   24774:	2b01      	cmp	r3, #1
   24776:	d113      	bne.n	247a0 <hal_crypto_crc_cmd+0x34>
   24778:	b1aa      	cbz	r2, 247a6 <hal_crypto_crc_cmd+0x3a>
   2477a:	b1a0      	cbz	r0, 247a6 <hal_crypto_crc_cmd+0x3a>
   2477c:	b1b1      	cbz	r1, 247ac <hal_crypto_crc_cmd+0x40>
   2477e:	f5b1 3f80 	cmp.w	r1, #65536	@ 0x10000
   24782:	d215      	bcs.n	247b0 <hal_crypto_crc_cmd+0x44>
   24784:	4f0d      	ldr	r7, [pc, #52]	@ (247bc <hal_crypto_crc_cmd+0x50>)
   24786:	460a      	mov	r2, r1
   24788:	4601      	mov	r1, r0
   2478a:	4630      	mov	r0, r6
   2478c:	6dfb      	ldr	r3, [r7, #92]	@ 0x5c
   2478e:	4798      	blx	r3
   24790:	4604      	mov	r4, r0
   24792:	b918      	cbnz	r0, 2479c <hal_crypto_crc_cmd+0x30>
   24794:	6e7b      	ldr	r3, [r7, #100]	@ 0x64
   24796:	4630      	mov	r0, r6
   24798:	4798      	blx	r3
   2479a:	6028      	str	r0, [r5, #0]
   2479c:	4620      	mov	r0, r4
   2479e:	bdf8      	pop	{r3, r4, r5, r6, r7, pc}
   247a0:	f06f 0404 	mvn.w	r4, #4
   247a4:	e7fa      	b.n	2479c <hal_crypto_crc_cmd+0x30>
   247a6:	f06f 0403 	mvn.w	r4, #3
   247aa:	e7f7      	b.n	2479c <hal_crypto_crc_cmd+0x30>
   247ac:	460c      	mov	r4, r1
   247ae:	e7f5      	b.n	2479c <hal_crypto_crc_cmd+0x30>
   247b0:	f06f 0407 	mvn.w	r4, #7
   247b4:	e7f2      	b.n	2479c <hal_crypto_crc_cmd+0x30>
   247b6:	bf00      	nop
   247b8:	20105200 	.word	0x20105200
   247bc:	10000130 	.word	0x10000130

000247c0 <hal_crypto_crc32_dma>:
   247c0:	e92d 41f3 	stmdb	sp!, {r0, r1, r4, r5, r6, r7, r8, lr}
   247c4:	f8df 8098 	ldr.w	r8, [pc, #152]	@ 24860 <hal_crypto_crc32_dma+0xa0>
   247c8:	4615      	mov	r5, r2
   247ca:	f898 3004 	ldrb.w	r3, [r8, #4]
   247ce:	2b01      	cmp	r3, #1
   247d0:	d136      	bne.n	24840 <hal_crypto_crc32_dma+0x80>
   247d2:	2a00      	cmp	r2, #0
   247d4:	d037      	beq.n	24846 <hal_crypto_crc32_dma+0x86>
   247d6:	2800      	cmp	r0, #0
   247d8:	d035      	beq.n	24846 <hal_crypto_crc32_dma+0x86>
   247da:	2900      	cmp	r1, #0
   247dc:	d036      	beq.n	2484c <hal_crypto_crc32_dma+0x8c>
   247de:	f5b1 3f80 	cmp.w	r1, #65536	@ 0x10000
   247e2:	d235      	bcs.n	24850 <hal_crypto_crc32_dma+0x90>
   247e4:	2300      	movs	r3, #0
   247e6:	4f1c      	ldr	r7, [pc, #112]	@ (24858 <hal_crypto_crc32_dma+0x98>)
   247e8:	4e1c      	ldr	r6, [pc, #112]	@ (2485c <hal_crypto_crc32_dma+0x9c>)
   247ea:	460a      	mov	r2, r1
   247ec:	603b      	str	r3, [r7, #0]
   247ee:	4601      	mov	r1, r0
   247f0:	6ef3      	ldr	r3, [r6, #108]	@ 0x6c
   247f2:	4640      	mov	r0, r8
   247f4:	4798      	blx	r3
   247f6:	4604      	mov	r4, r0
   247f8:	b930      	cbnz	r0, 24808 <hal_crypto_crc32_dma+0x48>
   247fa:	f898 3005 	ldrb.w	r3, [r8, #5]
   247fe:	b93b      	cbnz	r3, 24810 <hal_crypto_crc32_dma+0x50>
   24800:	6e73      	ldr	r3, [r6, #100]	@ 0x64
   24802:	4817      	ldr	r0, [pc, #92]	@ (24860 <hal_crypto_crc32_dma+0xa0>)
   24804:	4798      	blx	r3
   24806:	6028      	str	r0, [r5, #0]
   24808:	4620      	mov	r0, r4
   2480a:	b002      	add	sp, #8
   2480c:	e8bd 81f0 	ldmia.w	sp!, {r4, r5, r6, r7, r8, pc}
   24810:	f242 7310 	movw	r3, #10000	@ 0x2710
   24814:	683a      	ldr	r2, [r7, #0]
   24816:	2a00      	cmp	r2, #0
   24818:	d1f2      	bne.n	24800 <hal_crypto_crc32_dma+0x40>
   2481a:	3b01      	subs	r3, #1
   2481c:	d1fa      	bne.n	24814 <hal_crypto_crc32_dma+0x54>
   2481e:	4b11      	ldr	r3, [pc, #68]	@ (24864 <hal_crypto_crc32_dma+0xa4>)
   24820:	f8d3 3118 	ldr.w	r3, [r3, #280]	@ 0x118
   24824:	9301      	str	r3, [sp, #4]
   24826:	4b10      	ldr	r3, [pc, #64]	@ (24868 <hal_crypto_crc32_dma+0xa8>)
   24828:	681b      	ldr	r3, [r3, #0]
   2482a:	681b      	ldr	r3, [r3, #0]
   2482c:	05db      	lsls	r3, r3, #23
   2482e:	d504      	bpl.n	2483a <hal_crypto_crc32_dma+0x7a>
   24830:	4b0e      	ldr	r3, [pc, #56]	@ (2486c <hal_crypto_crc32_dma+0xac>)
   24832:	9901      	ldr	r1, [sp, #4]
   24834:	480e      	ldr	r0, [pc, #56]	@ (24870 <hal_crypto_crc32_dma+0xb0>)
   24836:	69db      	ldr	r3, [r3, #28]
   24838:	4798      	blx	r3
   2483a:	f04f 34ff 	mov.w	r4, #4294967295	@ 0xffffffff
   2483e:	e7e3      	b.n	24808 <hal_crypto_crc32_dma+0x48>
   24840:	f06f 0404 	mvn.w	r4, #4
   24844:	e7e0      	b.n	24808 <hal_crypto_crc32_dma+0x48>
   24846:	f06f 0403 	mvn.w	r4, #3
   2484a:	e7dd      	b.n	24808 <hal_crypto_crc32_dma+0x48>
   2484c:	460c      	mov	r4, r1
   2484e:	e7db      	b.n	24808 <hal_crypto_crc32_dma+0x48>
   24850:	f06f 0407 	mvn.w	r4, #7
   24854:	e7d8      	b.n	24808 <hal_crypto_crc32_dma+0x48>
   24856:	bf00      	nop
   24858:	00018d24 	.word	0x00018d24
   2485c:	10000130 	.word	0x10000130
   24860:	20105200 	.word	0x20105200
   24864:	50070000 	.word	0x50070000
   24868:	10000e10 	.word	0x10000e10
   2486c:	100bc800 	.word	0x100bc800
   24870:	2010192e 	.word	0x2010192e

00024874 <hal_eddsa_sha2_512_init>:
   24874:	b508      	push	{r3, lr}
   24876:	b138      	cbz	r0, 24888 <hal_eddsa_sha2_512_init+0x14>
   24878:	7a83      	ldrb	r3, [r0, #10]
   2487a:	b93b      	cbnz	r3, 2488c <hal_eddsa_sha2_512_init+0x18>
   2487c:	7a43      	ldrb	r3, [r0, #9]
   2487e:	2b01      	cmp	r3, #1
   24880:	d107      	bne.n	24892 <hal_eddsa_sha2_512_init+0x1e>
   24882:	f7ff fd35 	bl	242f0 <hal_crypto_sha2_512_init>
   24886:	bd08      	pop	{r3, pc}
   24888:	2003      	movs	r0, #3
   2488a:	e7fc      	b.n	24886 <hal_eddsa_sha2_512_init+0x12>
   2488c:	f06f 0009 	mvn.w	r0, #9
   24890:	e7f9      	b.n	24886 <hal_eddsa_sha2_512_init+0x12>
   24892:	f06f 000a 	mvn.w	r0, #10
   24896:	e7f6      	b.n	24886 <hal_eddsa_sha2_512_init+0x12>

00024898 <hal_eddsa_sha2_512_update>:
   24898:	b508      	push	{r3, lr}
   2489a:	4603      	mov	r3, r0
   2489c:	4608      	mov	r0, r1
   2489e:	4611      	mov	r1, r2
   248a0:	b13b      	cbz	r3, 248b2 <hal_eddsa_sha2_512_update+0x1a>
   248a2:	7a9a      	ldrb	r2, [r3, #10]
   248a4:	b93a      	cbnz	r2, 248b6 <hal_eddsa_sha2_512_update+0x1e>
